	.file	"main.cpp"
#APP
	.section .qtversion, "aG", @progbits, qt_version_tag, comdat
.align 8
.quad qt_version_tag@GOT
.long ((5<<16)|(8<<8)|(0))
.align 8
.previous
#NO_APP
	.section	.text.unlikely._ZN17QtMetaTypePrivate23QMetaTypeFunctionHelperIP14NewUserManagerLb1EE8DestructEPv,"axG",@progbits,_ZN17QtMetaTypePrivate23QMetaTypeFunctionHelperIP14NewUserManagerLb1EE8DestructEPv,comdat
.LCOLDB0:
	.section	.text._ZN17QtMetaTypePrivate23QMetaTypeFunctionHelperIP14NewUserManagerLb1EE8DestructEPv,"axG",@progbits,_ZN17QtMetaTypePrivate23QMetaTypeFunctionHelperIP14NewUserManagerLb1EE8DestructEPv,comdat
.LHOTB0:
	.p2align 4,,15
	.weak	_ZN17QtMetaTypePrivate23QMetaTypeFunctionHelperIP14NewUserManagerLb1EE8DestructEPv
	.type	_ZN17QtMetaTypePrivate23QMetaTypeFunctionHelperIP14NewUserManagerLb1EE8DestructEPv, @function
_ZN17QtMetaTypePrivate23QMetaTypeFunctionHelperIP14NewUserManagerLb1EE8DestructEPv:
.LFB17333:
	.cfi_startproc
	rep ret
	.cfi_endproc
.LFE17333:
	.size	_ZN17QtMetaTypePrivate23QMetaTypeFunctionHelperIP14NewUserManagerLb1EE8DestructEPv, .-_ZN17QtMetaTypePrivate23QMetaTypeFunctionHelperIP14NewUserManagerLb1EE8DestructEPv
	.section	.text.unlikely._ZN17QtMetaTypePrivate23QMetaTypeFunctionHelperIP14NewUserManagerLb1EE8DestructEPv,"axG",@progbits,_ZN17QtMetaTypePrivate23QMetaTypeFunctionHelperIP14NewUserManagerLb1EE8DestructEPv,comdat
.LCOLDE0:
	.section	.text._ZN17QtMetaTypePrivate23QMetaTypeFunctionHelperIP14NewUserManagerLb1EE8DestructEPv,"axG",@progbits,_ZN17QtMetaTypePrivate23QMetaTypeFunctionHelperIP14NewUserManagerLb1EE8DestructEPv,comdat
.LHOTE0:
	.section	.text.unlikely._ZN17QtMetaTypePrivate23QMetaTypeFunctionHelperIP14NewUserManagerLb1EE9ConstructEPvPKv,"axG",@progbits,_ZN17QtMetaTypePrivate23QMetaTypeFunctionHelperIP14NewUserManagerLb1EE9ConstructEPvPKv,comdat
.LCOLDB1:
	.section	.text._ZN17QtMetaTypePrivate23QMetaTypeFunctionHelperIP14NewUserManagerLb1EE9ConstructEPvPKv,"axG",@progbits,_ZN17QtMetaTypePrivate23QMetaTypeFunctionHelperIP14NewUserManagerLb1EE9ConstructEPvPKv,comdat
.LHOTB1:
	.p2align 4,,15
	.weak	_ZN17QtMetaTypePrivate23QMetaTypeFunctionHelperIP14NewUserManagerLb1EE9ConstructEPvPKv
	.type	_ZN17QtMetaTypePrivate23QMetaTypeFunctionHelperIP14NewUserManagerLb1EE9ConstructEPvPKv, @function
_ZN17QtMetaTypePrivate23QMetaTypeFunctionHelperIP14NewUserManagerLb1EE9ConstructEPvPKv:
.LFB17334:
	.cfi_startproc
	testq	%rdi, %rdi
	movq	%rdi, %rax
	je	.L3
	testq	%rsi, %rsi
	je	.L3
	movq	(%rsi), %rdx
	movq	%rdx, (%rdi)
.L3:
	rep ret
	.cfi_endproc
.LFE17334:
	.size	_ZN17QtMetaTypePrivate23QMetaTypeFunctionHelperIP14NewUserManagerLb1EE9ConstructEPvPKv, .-_ZN17QtMetaTypePrivate23QMetaTypeFunctionHelperIP14NewUserManagerLb1EE9ConstructEPvPKv
	.section	.text.unlikely._ZN17QtMetaTypePrivate23QMetaTypeFunctionHelperIP14NewUserManagerLb1EE9ConstructEPvPKv,"axG",@progbits,_ZN17QtMetaTypePrivate23QMetaTypeFunctionHelperIP14NewUserManagerLb1EE9ConstructEPvPKv,comdat
.LCOLDE1:
	.section	.text._ZN17QtMetaTypePrivate23QMetaTypeFunctionHelperIP14NewUserManagerLb1EE9ConstructEPvPKv,"axG",@progbits,_ZN17QtMetaTypePrivate23QMetaTypeFunctionHelperIP14NewUserManagerLb1EE9ConstructEPvPKv,comdat
.LHOTE1:
	.section	.text.unlikely._ZN17QtMetaTypePrivate23QMetaTypeFunctionHelperI16QQmlListPropertyI14NewUserManagerELb1EE8DestructEPv,"axG",@progbits,_ZN17QtMetaTypePrivate23QMetaTypeFunctionHelperI16QQmlListPropertyI14NewUserManagerELb1EE8DestructEPv,comdat
.LCOLDB2:
	.section	.text._ZN17QtMetaTypePrivate23QMetaTypeFunctionHelperI16QQmlListPropertyI14NewUserManagerELb1EE8DestructEPv,"axG",@progbits,_ZN17QtMetaTypePrivate23QMetaTypeFunctionHelperI16QQmlListPropertyI14NewUserManagerELb1EE8DestructEPv,comdat
.LHOTB2:
	.p2align 4,,15
	.weak	_ZN17QtMetaTypePrivate23QMetaTypeFunctionHelperI16QQmlListPropertyI14NewUserManagerELb1EE8DestructEPv
	.type	_ZN17QtMetaTypePrivate23QMetaTypeFunctionHelperI16QQmlListPropertyI14NewUserManagerELb1EE8DestructEPv, @function
_ZN17QtMetaTypePrivate23QMetaTypeFunctionHelperI16QQmlListPropertyI14NewUserManagerELb1EE8DestructEPv:
.LFB17340:
	.cfi_startproc
	rep ret
	.cfi_endproc
.LFE17340:
	.size	_ZN17QtMetaTypePrivate23QMetaTypeFunctionHelperI16QQmlListPropertyI14NewUserManagerELb1EE8DestructEPv, .-_ZN17QtMetaTypePrivate23QMetaTypeFunctionHelperI16QQmlListPropertyI14NewUserManagerELb1EE8DestructEPv
	.section	.text.unlikely._ZN17QtMetaTypePrivate23QMetaTypeFunctionHelperI16QQmlListPropertyI14NewUserManagerELb1EE8DestructEPv,"axG",@progbits,_ZN17QtMetaTypePrivate23QMetaTypeFunctionHelperI16QQmlListPropertyI14NewUserManagerELb1EE8DestructEPv,comdat
.LCOLDE2:
	.section	.text._ZN17QtMetaTypePrivate23QMetaTypeFunctionHelperI16QQmlListPropertyI14NewUserManagerELb1EE8DestructEPv,"axG",@progbits,_ZN17QtMetaTypePrivate23QMetaTypeFunctionHelperI16QQmlListPropertyI14NewUserManagerELb1EE8DestructEPv,comdat
.LHOTE2:
	.section	.text.unlikely._ZN17QtMetaTypePrivate23QMetaTypeFunctionHelperIP13SessionsModelLb1EE8DestructEPv,"axG",@progbits,_ZN17QtMetaTypePrivate23QMetaTypeFunctionHelperIP13SessionsModelLb1EE8DestructEPv,comdat
.LCOLDB3:
	.section	.text._ZN17QtMetaTypePrivate23QMetaTypeFunctionHelperIP13SessionsModelLb1EE8DestructEPv,"axG",@progbits,_ZN17QtMetaTypePrivate23QMetaTypeFunctionHelperIP13SessionsModelLb1EE8DestructEPv,comdat
.LHOTB3:
	.p2align 4,,15
	.weak	_ZN17QtMetaTypePrivate23QMetaTypeFunctionHelperIP13SessionsModelLb1EE8DestructEPv
	.type	_ZN17QtMetaTypePrivate23QMetaTypeFunctionHelperIP13SessionsModelLb1EE8DestructEPv, @function
_ZN17QtMetaTypePrivate23QMetaTypeFunctionHelperIP13SessionsModelLb1EE8DestructEPv:
.LFB17353:
	.cfi_startproc
	rep ret
	.cfi_endproc
.LFE17353:
	.size	_ZN17QtMetaTypePrivate23QMetaTypeFunctionHelperIP13SessionsModelLb1EE8DestructEPv, .-_ZN17QtMetaTypePrivate23QMetaTypeFunctionHelperIP13SessionsModelLb1EE8DestructEPv
	.section	.text.unlikely._ZN17QtMetaTypePrivate23QMetaTypeFunctionHelperIP13SessionsModelLb1EE8DestructEPv,"axG",@progbits,_ZN17QtMetaTypePrivate23QMetaTypeFunctionHelperIP13SessionsModelLb1EE8DestructEPv,comdat
.LCOLDE3:
	.section	.text._ZN17QtMetaTypePrivate23QMetaTypeFunctionHelperIP13SessionsModelLb1EE8DestructEPv,"axG",@progbits,_ZN17QtMetaTypePrivate23QMetaTypeFunctionHelperIP13SessionsModelLb1EE8DestructEPv,comdat
.LHOTE3:
	.section	.text.unlikely._ZN17QtMetaTypePrivate23QMetaTypeFunctionHelperIP13SessionsModelLb1EE9ConstructEPvPKv,"axG",@progbits,_ZN17QtMetaTypePrivate23QMetaTypeFunctionHelperIP13SessionsModelLb1EE9ConstructEPvPKv,comdat
.LCOLDB4:
	.section	.text._ZN17QtMetaTypePrivate23QMetaTypeFunctionHelperIP13SessionsModelLb1EE9ConstructEPvPKv,"axG",@progbits,_ZN17QtMetaTypePrivate23QMetaTypeFunctionHelperIP13SessionsModelLb1EE9ConstructEPvPKv,comdat
.LHOTB4:
	.p2align 4,,15
	.weak	_ZN17QtMetaTypePrivate23QMetaTypeFunctionHelperIP13SessionsModelLb1EE9ConstructEPvPKv
	.type	_ZN17QtMetaTypePrivate23QMetaTypeFunctionHelperIP13SessionsModelLb1EE9ConstructEPvPKv, @function
_ZN17QtMetaTypePrivate23QMetaTypeFunctionHelperIP13SessionsModelLb1EE9ConstructEPvPKv:
.LFB17354:
	.cfi_startproc
	testq	%rdi, %rdi
	movq	%rdi, %rax
	je	.L14
	testq	%rsi, %rsi
	je	.L14
	movq	(%rsi), %rdx
	movq	%rdx, (%rdi)
.L14:
	rep ret
	.cfi_endproc
.LFE17354:
	.size	_ZN17QtMetaTypePrivate23QMetaTypeFunctionHelperIP13SessionsModelLb1EE9ConstructEPvPKv, .-_ZN17QtMetaTypePrivate23QMetaTypeFunctionHelperIP13SessionsModelLb1EE9ConstructEPvPKv
	.section	.text.unlikely._ZN17QtMetaTypePrivate23QMetaTypeFunctionHelperIP13SessionsModelLb1EE9ConstructEPvPKv,"axG",@progbits,_ZN17QtMetaTypePrivate23QMetaTypeFunctionHelperIP13SessionsModelLb1EE9ConstructEPvPKv,comdat
.LCOLDE4:
	.section	.text._ZN17QtMetaTypePrivate23QMetaTypeFunctionHelperIP13SessionsModelLb1EE9ConstructEPvPKv,"axG",@progbits,_ZN17QtMetaTypePrivate23QMetaTypeFunctionHelperIP13SessionsModelLb1EE9ConstructEPvPKv,comdat
.LHOTE4:
	.section	.text.unlikely._ZN17QtMetaTypePrivate23QMetaTypeFunctionHelperI16QQmlListPropertyI13SessionsModelELb1EE8DestructEPv,"axG",@progbits,_ZN17QtMetaTypePrivate23QMetaTypeFunctionHelperI16QQmlListPropertyI13SessionsModelELb1EE8DestructEPv,comdat
.LCOLDB5:
	.section	.text._ZN17QtMetaTypePrivate23QMetaTypeFunctionHelperI16QQmlListPropertyI13SessionsModelELb1EE8DestructEPv,"axG",@progbits,_ZN17QtMetaTypePrivate23QMetaTypeFunctionHelperI16QQmlListPropertyI13SessionsModelELb1EE8DestructEPv,comdat
.LHOTB5:
	.p2align 4,,15
	.weak	_ZN17QtMetaTypePrivate23QMetaTypeFunctionHelperI16QQmlListPropertyI13SessionsModelELb1EE8DestructEPv
	.type	_ZN17QtMetaTypePrivate23QMetaTypeFunctionHelperI16QQmlListPropertyI13SessionsModelELb1EE8DestructEPv, @function
_ZN17QtMetaTypePrivate23QMetaTypeFunctionHelperI16QQmlListPropertyI13SessionsModelELb1EE8DestructEPv:
.LFB17360:
	.cfi_startproc
	rep ret
	.cfi_endproc
.LFE17360:
	.size	_ZN17QtMetaTypePrivate23QMetaTypeFunctionHelperI16QQmlListPropertyI13SessionsModelELb1EE8DestructEPv, .-_ZN17QtMetaTypePrivate23QMetaTypeFunctionHelperI16QQmlListPropertyI13SessionsModelELb1EE8DestructEPv
	.section	.text.unlikely._ZN17QtMetaTypePrivate23QMetaTypeFunctionHelperI16QQmlListPropertyI13SessionsModelELb1EE8DestructEPv,"axG",@progbits,_ZN17QtMetaTypePrivate23QMetaTypeFunctionHelperI16QQmlListPropertyI13SessionsModelELb1EE8DestructEPv,comdat
.LCOLDE5:
	.section	.text._ZN17QtMetaTypePrivate23QMetaTypeFunctionHelperI16QQmlListPropertyI13SessionsModelELb1EE8DestructEPv,"axG",@progbits,_ZN17QtMetaTypePrivate23QMetaTypeFunctionHelperI16QQmlListPropertyI13SessionsModelELb1EE8DestructEPv,comdat
.LHOTE5:
	.section	.text.unlikely._ZN11QQmlPrivate10createIntoI14NewUserManagerEEvPv,"axG",@progbits,_ZN11QQmlPrivate10createIntoI14NewUserManagerEEvPv,comdat
.LCOLDB6:
	.section	.text._ZN11QQmlPrivate10createIntoI14NewUserManagerEEvPv,"axG",@progbits,_ZN11QQmlPrivate10createIntoI14NewUserManagerEEvPv,comdat
.LHOTB6:
	.p2align 4,,15
	.weak	_ZN11QQmlPrivate10createIntoI14NewUserManagerEEvPv
	.type	_ZN11QQmlPrivate10createIntoI14NewUserManagerEEvPv, @function
_ZN11QQmlPrivate10createIntoI14NewUserManagerEEvPv:
.LFB16806:
	.cfi_startproc
	testq	%rdi, %rdi
	je	.L29
	pushq	%rbx
	.cfi_def_cfa_offset 16
	.cfi_offset 3, -16
	xorl	%esi, %esi
	movq	%rdi, %rbx
	call	_ZN14NewUserManagerC2EP7QObject@PLT
	movq	_ZTVN11QQmlPrivate11QQmlElementI14NewUserManagerEE@GOTPCREL(%rip), %rax
	addq	$16, %rax
	movq	%rax, (%rbx)
	popq	%rbx
	.cfi_restore 3
	.cfi_def_cfa_offset 8
.L29:
	rep ret
	.cfi_endproc
.LFE16806:
	.size	_ZN11QQmlPrivate10createIntoI14NewUserManagerEEvPv, .-_ZN11QQmlPrivate10createIntoI14NewUserManagerEEvPv
	.section	.text.unlikely._ZN11QQmlPrivate10createIntoI14NewUserManagerEEvPv,"axG",@progbits,_ZN11QQmlPrivate10createIntoI14NewUserManagerEEvPv,comdat
.LCOLDE6:
	.section	.text._ZN11QQmlPrivate10createIntoI14NewUserManagerEEvPv,"axG",@progbits,_ZN11QQmlPrivate10createIntoI14NewUserManagerEEvPv,comdat
.LHOTE6:
	.section	.text.unlikely._ZN11QQmlPrivate11QQmlElementI14NewUserManagerED2Ev,"axG",@progbits,_ZN11QQmlPrivate11QQmlElementI14NewUserManagerED5Ev,comdat
	.align 2
.LCOLDB7:
	.section	.text._ZN11QQmlPrivate11QQmlElementI14NewUserManagerED2Ev,"axG",@progbits,_ZN11QQmlPrivate11QQmlElementI14NewUserManagerED5Ev,comdat
.LHOTB7:
	.align 2
	.p2align 4,,15
	.weak	_ZN11QQmlPrivate11QQmlElementI14NewUserManagerED2Ev
	.type	_ZN11QQmlPrivate11QQmlElementI14NewUserManagerED2Ev, @function
_ZN11QQmlPrivate11QQmlElementI14NewUserManagerED2Ev:
.LFB17804:
	.cfi_startproc
	.cfi_personality 0x9b,DW.ref.__gxx_personality_v0
	.cfi_lsda 0x1b,.LLSDA17804
	movq	_ZTVN11QQmlPrivate11QQmlElementI14NewUserManagerEE@GOTPCREL(%rip), %rax
	pushq	%rbx
	.cfi_def_cfa_offset 16
	.cfi_offset 3, -16
	movq	%rdi, %rbx
	addq	$16, %rax
	movq	%rax, (%rdi)
	call	_ZN11QQmlPrivate30qdeclarativeelement_destructorEP7QObject@PLT
	movq	_ZTV14NewUserManager@GOTPCREL(%rip), %rax
	movq	%rbx, %rdi
	addq	$16, %rax
	movq	%rax, (%rbx)
	popq	%rbx
	.cfi_def_cfa_offset 8
	jmp	_ZN7QObjectD2Ev@PLT
	.cfi_endproc
.LFE17804:
	.globl	__gxx_personality_v0
	.section	.gcc_except_table._ZN11QQmlPrivate11QQmlElementI14NewUserManagerED2Ev,"aG",@progbits,_ZN11QQmlPrivate11QQmlElementI14NewUserManagerED5Ev,comdat
.LLSDA17804:
	.byte	0xff
	.byte	0xff
	.byte	0x1
	.uleb128 .LLSDACSE17804-.LLSDACSB17804
.LLSDACSB17804:
.LLSDACSE17804:
	.section	.text._ZN11QQmlPrivate11QQmlElementI14NewUserManagerED2Ev,"axG",@progbits,_ZN11QQmlPrivate11QQmlElementI14NewUserManagerED5Ev,comdat
	.size	_ZN11QQmlPrivate11QQmlElementI14NewUserManagerED2Ev, .-_ZN11QQmlPrivate11QQmlElementI14NewUserManagerED2Ev
	.section	.text.unlikely._ZN11QQmlPrivate11QQmlElementI14NewUserManagerED2Ev,"axG",@progbits,_ZN11QQmlPrivate11QQmlElementI14NewUserManagerED5Ev,comdat
.LCOLDE7:
	.section	.text._ZN11QQmlPrivate11QQmlElementI14NewUserManagerED2Ev,"axG",@progbits,_ZN11QQmlPrivate11QQmlElementI14NewUserManagerED5Ev,comdat
.LHOTE7:
	.weak	_ZN11QQmlPrivate11QQmlElementI14NewUserManagerED1Ev
	.set	_ZN11QQmlPrivate11QQmlElementI14NewUserManagerED1Ev,_ZN11QQmlPrivate11QQmlElementI14NewUserManagerED2Ev
	.section	.text.unlikely._ZN11QQmlPrivate11QQmlElementI14NewUserManagerED0Ev,"axG",@progbits,_ZN11QQmlPrivate11QQmlElementI14NewUserManagerED5Ev,comdat
	.align 2
.LCOLDB8:
	.section	.text._ZN11QQmlPrivate11QQmlElementI14NewUserManagerED0Ev,"axG",@progbits,_ZN11QQmlPrivate11QQmlElementI14NewUserManagerED5Ev,comdat
.LHOTB8:
	.align 2
	.p2align 4,,15
	.weak	_ZN11QQmlPrivate11QQmlElementI14NewUserManagerED0Ev
	.type	_ZN11QQmlPrivate11QQmlElementI14NewUserManagerED0Ev, @function
_ZN11QQmlPrivate11QQmlElementI14NewUserManagerED0Ev:
.LFB17806:
	.cfi_startproc
	.cfi_personality 0x9b,DW.ref.__gxx_personality_v0
	.cfi_lsda 0x1b,.LLSDA17806
	movq	_ZTVN11QQmlPrivate11QQmlElementI14NewUserManagerEE@GOTPCREL(%rip), %rax
	pushq	%rbx
	.cfi_def_cfa_offset 16
	.cfi_offset 3, -16
	movq	%rdi, %rbx
	addq	$16, %rax
	movq	%rax, (%rdi)
	call	_ZN11QQmlPrivate30qdeclarativeelement_destructorEP7QObject@PLT
	movq	_ZTV14NewUserManager@GOTPCREL(%rip), %rax
	movq	%rbx, %rdi
	addq	$16, %rax
	movq	%rax, (%rbx)
	call	_ZN7QObjectD2Ev@PLT
	movq	%rbx, %rdi
	popq	%rbx
	.cfi_def_cfa_offset 8
	jmp	_ZdlPv@PLT
	.cfi_endproc
.LFE17806:
	.section	.gcc_except_table._ZN11QQmlPrivate11QQmlElementI14NewUserManagerED0Ev,"aG",@progbits,_ZN11QQmlPrivate11QQmlElementI14NewUserManagerED5Ev,comdat
.LLSDA17806:
	.byte	0xff
	.byte	0xff
	.byte	0x1
	.uleb128 .LLSDACSE17806-.LLSDACSB17806
.LLSDACSB17806:
.LLSDACSE17806:
	.section	.text._ZN11QQmlPrivate11QQmlElementI14NewUserManagerED0Ev,"axG",@progbits,_ZN11QQmlPrivate11QQmlElementI14NewUserManagerED5Ev,comdat
	.size	_ZN11QQmlPrivate11QQmlElementI14NewUserManagerED0Ev, .-_ZN11QQmlPrivate11QQmlElementI14NewUserManagerED0Ev
	.section	.text.unlikely._ZN11QQmlPrivate11QQmlElementI14NewUserManagerED0Ev,"axG",@progbits,_ZN11QQmlPrivate11QQmlElementI14NewUserManagerED5Ev,comdat
.LCOLDE8:
	.section	.text._ZN11QQmlPrivate11QQmlElementI14NewUserManagerED0Ev,"axG",@progbits,_ZN11QQmlPrivate11QQmlElementI14NewUserManagerED5Ev,comdat
.LHOTE8:
	.section	.text.unlikely._ZN11QQmlPrivate10createIntoI13SessionsModelEEvPv,"axG",@progbits,_ZN11QQmlPrivate10createIntoI13SessionsModelEEvPv,comdat
.LCOLDB9:
	.section	.text._ZN11QQmlPrivate10createIntoI13SessionsModelEEvPv,"axG",@progbits,_ZN11QQmlPrivate10createIntoI13SessionsModelEEvPv,comdat
.LHOTB9:
	.p2align 4,,15
	.weak	_ZN11QQmlPrivate10createIntoI13SessionsModelEEvPv
	.type	_ZN11QQmlPrivate10createIntoI13SessionsModelEEvPv, @function
_ZN11QQmlPrivate10createIntoI13SessionsModelEEvPv:
.LFB16824:
	.cfi_startproc
	testq	%rdi, %rdi
	je	.L41
	pushq	%rbx
	.cfi_def_cfa_offset 16
	.cfi_offset 3, -16
	xorl	%esi, %esi
	movq	%rdi, %rbx
	call	_ZN13SessionsModelC2EP7QObject@PLT
	movq	_ZTVN11QQmlPrivate11QQmlElementI13SessionsModelEE@GOTPCREL(%rip), %rax
	addq	$16, %rax
	movq	%rax, (%rbx)
	popq	%rbx
	.cfi_restore 3
	.cfi_def_cfa_offset 8
.L41:
	rep ret
	.cfi_endproc
.LFE16824:
	.size	_ZN11QQmlPrivate10createIntoI13SessionsModelEEvPv, .-_ZN11QQmlPrivate10createIntoI13SessionsModelEEvPv
	.section	.text.unlikely._ZN11QQmlPrivate10createIntoI13SessionsModelEEvPv,"axG",@progbits,_ZN11QQmlPrivate10createIntoI13SessionsModelEEvPv,comdat
.LCOLDE9:
	.section	.text._ZN11QQmlPrivate10createIntoI13SessionsModelEEvPv,"axG",@progbits,_ZN11QQmlPrivate10createIntoI13SessionsModelEEvPv,comdat
.LHOTE9:
	.section	.text.unlikely._ZN11QQmlPrivate11QQmlElementI13SessionsModelED2Ev,"axG",@progbits,_ZN11QQmlPrivate11QQmlElementI13SessionsModelED5Ev,comdat
	.align 2
.LCOLDB10:
	.section	.text._ZN11QQmlPrivate11QQmlElementI13SessionsModelED2Ev,"axG",@progbits,_ZN11QQmlPrivate11QQmlElementI13SessionsModelED5Ev,comdat
.LHOTB10:
	.align 2
	.p2align 4,,15
	.weak	_ZN11QQmlPrivate11QQmlElementI13SessionsModelED2Ev
	.type	_ZN11QQmlPrivate11QQmlElementI13SessionsModelED2Ev, @function
_ZN11QQmlPrivate11QQmlElementI13SessionsModelED2Ev:
.LFB17800:
	.cfi_startproc
	.cfi_personality 0x9b,DW.ref.__gxx_personality_v0
	.cfi_lsda 0x1b,.LLSDA17800
	movq	_ZTVN11QQmlPrivate11QQmlElementI13SessionsModelEE@GOTPCREL(%rip), %rax
	pushq	%rbx
	.cfi_def_cfa_offset 16
	.cfi_offset 3, -16
	movq	%rdi, %rbx
	addq	$16, %rax
	movq	%rax, (%rdi)
	call	_ZN11QQmlPrivate30qdeclarativeelement_destructorEP7QObject@PLT
	movq	%rbx, %rdi
	popq	%rbx
	.cfi_def_cfa_offset 8
	jmp	_ZN13SessionsModelD2Ev@PLT
	.cfi_endproc
.LFE17800:
	.section	.gcc_except_table._ZN11QQmlPrivate11QQmlElementI13SessionsModelED2Ev,"aG",@progbits,_ZN11QQmlPrivate11QQmlElementI13SessionsModelED5Ev,comdat
.LLSDA17800:
	.byte	0xff
	.byte	0xff
	.byte	0x1
	.uleb128 .LLSDACSE17800-.LLSDACSB17800
.LLSDACSB17800:
.LLSDACSE17800:
	.section	.text._ZN11QQmlPrivate11QQmlElementI13SessionsModelED2Ev,"axG",@progbits,_ZN11QQmlPrivate11QQmlElementI13SessionsModelED5Ev,comdat
	.size	_ZN11QQmlPrivate11QQmlElementI13SessionsModelED2Ev, .-_ZN11QQmlPrivate11QQmlElementI13SessionsModelED2Ev
	.section	.text.unlikely._ZN11QQmlPrivate11QQmlElementI13SessionsModelED2Ev,"axG",@progbits,_ZN11QQmlPrivate11QQmlElementI13SessionsModelED5Ev,comdat
.LCOLDE10:
	.section	.text._ZN11QQmlPrivate11QQmlElementI13SessionsModelED2Ev,"axG",@progbits,_ZN11QQmlPrivate11QQmlElementI13SessionsModelED5Ev,comdat
.LHOTE10:
	.weak	_ZN11QQmlPrivate11QQmlElementI13SessionsModelED1Ev
	.set	_ZN11QQmlPrivate11QQmlElementI13SessionsModelED1Ev,_ZN11QQmlPrivate11QQmlElementI13SessionsModelED2Ev
	.section	.text.unlikely._ZN11QQmlPrivate11QQmlElementI13SessionsModelED0Ev,"axG",@progbits,_ZN11QQmlPrivate11QQmlElementI13SessionsModelED5Ev,comdat
	.align 2
.LCOLDB11:
	.section	.text._ZN11QQmlPrivate11QQmlElementI13SessionsModelED0Ev,"axG",@progbits,_ZN11QQmlPrivate11QQmlElementI13SessionsModelED5Ev,comdat
.LHOTB11:
	.align 2
	.p2align 4,,15
	.weak	_ZN11QQmlPrivate11QQmlElementI13SessionsModelED0Ev
	.type	_ZN11QQmlPrivate11QQmlElementI13SessionsModelED0Ev, @function
_ZN11QQmlPrivate11QQmlElementI13SessionsModelED0Ev:
.LFB17802:
	.cfi_startproc
	.cfi_personality 0x9b,DW.ref.__gxx_personality_v0
	.cfi_lsda 0x1b,.LLSDA17802
	movq	_ZTVN11QQmlPrivate11QQmlElementI13SessionsModelEE@GOTPCREL(%rip), %rax
	pushq	%rbx
	.cfi_def_cfa_offset 16
	.cfi_offset 3, -16
	movq	%rdi, %rbx
	addq	$16, %rax
	movq	%rax, (%rdi)
	call	_ZN11QQmlPrivate30qdeclarativeelement_destructorEP7QObject@PLT
	movq	%rbx, %rdi
	call	_ZN13SessionsModelD2Ev@PLT
	movq	%rbx, %rdi
	popq	%rbx
	.cfi_def_cfa_offset 8
	jmp	_ZdlPv@PLT
	.cfi_endproc
.LFE17802:
	.section	.gcc_except_table._ZN11QQmlPrivate11QQmlElementI13SessionsModelED0Ev,"aG",@progbits,_ZN11QQmlPrivate11QQmlElementI13SessionsModelED5Ev,comdat
.LLSDA17802:
	.byte	0xff
	.byte	0xff
	.byte	0x1
	.uleb128 .LLSDACSE17802-.LLSDACSB17802
.LLSDACSB17802:
.LLSDACSE17802:
	.section	.text._ZN11QQmlPrivate11QQmlElementI13SessionsModelED0Ev,"axG",@progbits,_ZN11QQmlPrivate11QQmlElementI13SessionsModelED5Ev,comdat
	.size	_ZN11QQmlPrivate11QQmlElementI13SessionsModelED0Ev, .-_ZN11QQmlPrivate11QQmlElementI13SessionsModelED0Ev
	.section	.text.unlikely._ZN11QQmlPrivate11QQmlElementI13SessionsModelED0Ev,"axG",@progbits,_ZN11QQmlPrivate11QQmlElementI13SessionsModelED5Ev,comdat
.LCOLDE11:
	.section	.text._ZN11QQmlPrivate11QQmlElementI13SessionsModelED0Ev,"axG",@progbits,_ZN11QQmlPrivate11QQmlElementI13SessionsModelED5Ev,comdat
.LHOTE11:
	.section	.text.unlikely._ZN17QtMetaTypePrivate23QMetaTypeFunctionHelperI16QQmlListPropertyI14NewUserManagerELb1EE9ConstructEPvPKv,"axG",@progbits,_ZN17QtMetaTypePrivate23QMetaTypeFunctionHelperI16QQmlListPropertyI14NewUserManagerELb1EE9ConstructEPvPKv,comdat
.LCOLDB12:
	.section	.text._ZN17QtMetaTypePrivate23QMetaTypeFunctionHelperI16QQmlListPropertyI14NewUserManagerELb1EE9ConstructEPvPKv,"axG",@progbits,_ZN17QtMetaTypePrivate23QMetaTypeFunctionHelperI16QQmlListPropertyI14NewUserManagerELb1EE9ConstructEPvPKv,comdat
.LHOTB12:
	.p2align 4,,15
	.weak	_ZN17QtMetaTypePrivate23QMetaTypeFunctionHelperI16QQmlListPropertyI14NewUserManagerELb1EE9ConstructEPvPKv
	.type	_ZN17QtMetaTypePrivate23QMetaTypeFunctionHelperI16QQmlListPropertyI14NewUserManagerELb1EE9ConstructEPvPKv, @function
_ZN17QtMetaTypePrivate23QMetaTypeFunctionHelperI16QQmlListPropertyI14NewUserManagerELb1EE9ConstructEPvPKv:
.LFB17341:
	.cfi_startproc
	testq	%rsi, %rsi
	movq	%rdi, %rax
	je	.L47
	testq	%rdi, %rdi
	je	.L48
	movq	(%rsi), %rdx
	movq	%rdx, (%rdi)
	movq	8(%rsi), %rdx
	movq	%rdx, 8(%rdi)
	movq	16(%rsi), %rdx
	movq	%rdx, 16(%rdi)
	movq	24(%rsi), %rdx
	movq	%rdx, 24(%rdi)
	movq	32(%rsi), %rdx
	movq	%rdx, 32(%rdi)
	movq	40(%rsi), %rdx
	movq	%rdx, 40(%rdi)
	movq	48(%rsi), %rdx
	movq	%rdx, 48(%rdi)
	movq	56(%rsi), %rdx
	movq	%rdx, 56(%rdi)
	ret
	.p2align 4,,10
	.p2align 3
.L47:
	testq	%rdi, %rdi
	je	.L48
	movq	$0, (%rdi)
	movq	$0, 8(%rdi)
	movq	$0, 16(%rdi)
	movq	$0, 24(%rdi)
	movq	$0, 32(%rdi)
	movq	$0, 40(%rdi)
	movq	$0, 48(%rdi)
	movq	$0, 56(%rdi)
.L48:
	rep ret
	.cfi_endproc
.LFE17341:
	.size	_ZN17QtMetaTypePrivate23QMetaTypeFunctionHelperI16QQmlListPropertyI14NewUserManagerELb1EE9ConstructEPvPKv, .-_ZN17QtMetaTypePrivate23QMetaTypeFunctionHelperI16QQmlListPropertyI14NewUserManagerELb1EE9ConstructEPvPKv
	.section	.text.unlikely._ZN17QtMetaTypePrivate23QMetaTypeFunctionHelperI16QQmlListPropertyI14NewUserManagerELb1EE9ConstructEPvPKv,"axG",@progbits,_ZN17QtMetaTypePrivate23QMetaTypeFunctionHelperI16QQmlListPropertyI14NewUserManagerELb1EE9ConstructEPvPKv,comdat
.LCOLDE12:
	.section	.text._ZN17QtMetaTypePrivate23QMetaTypeFunctionHelperI16QQmlListPropertyI14NewUserManagerELb1EE9ConstructEPvPKv,"axG",@progbits,_ZN17QtMetaTypePrivate23QMetaTypeFunctionHelperI16QQmlListPropertyI14NewUserManagerELb1EE9ConstructEPvPKv,comdat
.LHOTE12:
	.section	.text.unlikely._ZN17QtMetaTypePrivate23QMetaTypeFunctionHelperI16QQmlListPropertyI13SessionsModelELb1EE9ConstructEPvPKv,"axG",@progbits,_ZN17QtMetaTypePrivate23QMetaTypeFunctionHelperI16QQmlListPropertyI13SessionsModelELb1EE9ConstructEPvPKv,comdat
.LCOLDB13:
	.section	.text._ZN17QtMetaTypePrivate23QMetaTypeFunctionHelperI16QQmlListPropertyI13SessionsModelELb1EE9ConstructEPvPKv,"axG",@progbits,_ZN17QtMetaTypePrivate23QMetaTypeFunctionHelperI16QQmlListPropertyI13SessionsModelELb1EE9ConstructEPvPKv,comdat
.LHOTB13:
	.p2align 4,,15
	.weak	_ZN17QtMetaTypePrivate23QMetaTypeFunctionHelperI16QQmlListPropertyI13SessionsModelELb1EE9ConstructEPvPKv
	.type	_ZN17QtMetaTypePrivate23QMetaTypeFunctionHelperI16QQmlListPropertyI13SessionsModelELb1EE9ConstructEPvPKv, @function
_ZN17QtMetaTypePrivate23QMetaTypeFunctionHelperI16QQmlListPropertyI13SessionsModelELb1EE9ConstructEPvPKv:
.LFB17361:
	.cfi_startproc
	testq	%rsi, %rsi
	movq	%rdi, %rax
	je	.L56
	testq	%rdi, %rdi
	je	.L57
	movq	(%rsi), %rdx
	movq	%rdx, (%rdi)
	movq	8(%rsi), %rdx
	movq	%rdx, 8(%rdi)
	movq	16(%rsi), %rdx
	movq	%rdx, 16(%rdi)
	movq	24(%rsi), %rdx
	movq	%rdx, 24(%rdi)
	movq	32(%rsi), %rdx
	movq	%rdx, 32(%rdi)
	movq	40(%rsi), %rdx
	movq	%rdx, 40(%rdi)
	movq	48(%rsi), %rdx
	movq	%rdx, 48(%rdi)
	movq	56(%rsi), %rdx
	movq	%rdx, 56(%rdi)
	ret
	.p2align 4,,10
	.p2align 3
.L56:
	testq	%rdi, %rdi
	je	.L57
	movq	$0, (%rdi)
	movq	$0, 8(%rdi)
	movq	$0, 16(%rdi)
	movq	$0, 24(%rdi)
	movq	$0, 32(%rdi)
	movq	$0, 40(%rdi)
	movq	$0, 48(%rdi)
	movq	$0, 56(%rdi)
.L57:
	rep ret
	.cfi_endproc
.LFE17361:
	.size	_ZN17QtMetaTypePrivate23QMetaTypeFunctionHelperI16QQmlListPropertyI13SessionsModelELb1EE9ConstructEPvPKv, .-_ZN17QtMetaTypePrivate23QMetaTypeFunctionHelperI16QQmlListPropertyI13SessionsModelELb1EE9ConstructEPvPKv
	.section	.text.unlikely._ZN17QtMetaTypePrivate23QMetaTypeFunctionHelperI16QQmlListPropertyI13SessionsModelELb1EE9ConstructEPvPKv,"axG",@progbits,_ZN17QtMetaTypePrivate23QMetaTypeFunctionHelperI16QQmlListPropertyI13SessionsModelELb1EE9ConstructEPvPKv,comdat
.LCOLDE13:
	.section	.text._ZN17QtMetaTypePrivate23QMetaTypeFunctionHelperI16QQmlListPropertyI13SessionsModelELb1EE9ConstructEPvPKv,"axG",@progbits,_ZN17QtMetaTypePrivate23QMetaTypeFunctionHelperI16QQmlListPropertyI13SessionsModelELb1EE9ConstructEPvPKv,comdat
.LHOTE13:
	.section	.text.unlikely._ZN7QStringD2Ev,"axG",@progbits,_ZN7QStringD5Ev,comdat
	.align 2
.LCOLDB14:
	.section	.text._ZN7QStringD2Ev,"axG",@progbits,_ZN7QStringD5Ev,comdat
.LHOTB14:
	.align 2
	.p2align 4,,15
	.weak	_ZN7QStringD2Ev
	.type	_ZN7QStringD2Ev, @function
_ZN7QStringD2Ev:
.LFB9429:
	.cfi_startproc
	movq	(%rdi), %rax
	movl	(%rax), %edx
	testl	%edx, %edx
	je	.L69
	cmpl	$-1, %edx
	je	.L64
	lock subl	$1, (%rax)
	je	.L69
.L64:
	rep ret
	.p2align 4,,10
	.p2align 3
.L69:
	movq	(%rdi), %rdi
	movl	$8, %edx
	movl	$2, %esi
	jmp	_ZN10QArrayData10deallocateEPS_mm@PLT
	.cfi_endproc
.LFE9429:
	.size	_ZN7QStringD2Ev, .-_ZN7QStringD2Ev
	.section	.text.unlikely._ZN7QStringD2Ev,"axG",@progbits,_ZN7QStringD5Ev,comdat
.LCOLDE14:
	.section	.text._ZN7QStringD2Ev,"axG",@progbits,_ZN7QStringD5Ev,comdat
.LHOTE14:
	.weak	_ZN7QStringD1Ev
	.set	_ZN7QStringD1Ev,_ZN7QStringD2Ev
	.section	.text.unlikely._ZN10QByteArrayD2Ev,"axG",@progbits,_ZN10QByteArrayD5Ev,comdat
	.align 2
.LCOLDB15:
	.section	.text._ZN10QByteArrayD2Ev,"axG",@progbits,_ZN10QByteArrayD5Ev,comdat
.LHOTB15:
	.align 2
	.p2align 4,,15
	.weak	_ZN10QByteArrayD2Ev
	.type	_ZN10QByteArrayD2Ev, @function
_ZN10QByteArrayD2Ev:
.LFB9121:
	.cfi_startproc
	movq	(%rdi), %rax
	movl	(%rax), %edx
	testl	%edx, %edx
	je	.L75
	cmpl	$-1, %edx
	je	.L70
	lock subl	$1, (%rax)
	je	.L75
.L70:
	rep ret
	.p2align 4,,10
	.p2align 3
.L75:
	movq	(%rdi), %rdi
	movl	$8, %edx
	movl	$1, %esi
	jmp	_ZN10QArrayData10deallocateEPS_mm@PLT
	.cfi_endproc
.LFE9121:
	.size	_ZN10QByteArrayD2Ev, .-_ZN10QByteArrayD2Ev
	.section	.text.unlikely._ZN10QByteArrayD2Ev,"axG",@progbits,_ZN10QByteArrayD5Ev,comdat
.LCOLDE15:
	.section	.text._ZN10QByteArrayD2Ev,"axG",@progbits,_ZN10QByteArrayD5Ev,comdat
.LHOTE15:
	.weak	_ZN10QByteArrayD1Ev
	.set	_ZN10QByteArrayD1Ev,_ZN10QByteArrayD2Ev
	.section	.text.unlikely._ZN7QStringC2EPKc,"axG",@progbits,_ZN7QStringC5EPKc,comdat
	.align 2
.LCOLDB16:
	.section	.text._ZN7QStringC2EPKc,"axG",@progbits,_ZN7QStringC5EPKc,comdat
.LHOTB16:
	.align 2
	.p2align 4,,15
	.weak	_ZN7QStringC2EPKc
	.type	_ZN7QStringC2EPKc, @function
_ZN7QStringC2EPKc:
.LFB9298:
	.cfi_startproc
	pushq	%rbp
	.cfi_def_cfa_offset 16
	.cfi_offset 6, -16
	pushq	%rbx
	.cfi_def_cfa_offset 24
	.cfi_offset 3, -24
	movq	%rsi, %rbx
	movq	%rdi, %rbp
	movl	$-1, %esi
	subq	$8, %rsp
	.cfi_def_cfa_offset 32
	testq	%rbx, %rbx
	je	.L77
	movq	%rbx, %rdi
	call	strlen@PLT
	movl	%eax, %esi
.L77:
	movq	%rbx, %rdi
	call	_ZN7QString16fromAscii_helperEPKci@PLT
	movq	%rax, 0(%rbp)
	addq	$8, %rsp
	.cfi_def_cfa_offset 24
	popq	%rbx
	.cfi_def_cfa_offset 16
	popq	%rbp
	.cfi_def_cfa_offset 8
	ret
	.cfi_endproc
.LFE9298:
	.size	_ZN7QStringC2EPKc, .-_ZN7QStringC2EPKc
	.section	.text.unlikely._ZN7QStringC2EPKc,"axG",@progbits,_ZN7QStringC5EPKc,comdat
.LCOLDE16:
	.section	.text._ZN7QStringC2EPKc,"axG",@progbits,_ZN7QStringC5EPKc,comdat
.LHOTE16:
	.weak	_ZN7QStringC1EPKc
	.set	_ZN7QStringC1EPKc,_ZN7QStringC2EPKc
	.section	.text.unlikely._ZN6QDebuglsERK7QString,"axG",@progbits,_ZN6QDebuglsERK7QString,comdat
	.align 2
.LCOLDB17:
	.section	.text._ZN6QDebuglsERK7QString,"axG",@progbits,_ZN6QDebuglsERK7QString,comdat
.LHOTB17:
	.align 2
	.p2align 4,,15
	.weak	_ZN6QDebuglsERK7QString
	.type	_ZN6QDebuglsERK7QString, @function
_ZN6QDebuglsERK7QString:
.LFB13151:
	.cfi_startproc
	pushq	%rbx
	.cfi_def_cfa_offset 16
	.cfi_offset 3, -16
	movq	(%rsi), %rsi
	movq	%rdi, %rbx
	movl	4(%rsi), %edx
	addq	16(%rsi), %rsi
	call	_ZN6QDebug9putStringEPK5QCharm@PLT
	movq	(%rbx), %rdi
	cmpb	$0, 32(%rdi)
	je	.L83
	movl	$32, %esi
	call	_ZN11QTextStreamlsEc@PLT
.L83:
	movq	%rbx, %rax
	popq	%rbx
	.cfi_def_cfa_offset 8
	ret
	.cfi_endproc
.LFE13151:
	.size	_ZN6QDebuglsERK7QString, .-_ZN6QDebuglsERK7QString
	.section	.text.unlikely._ZN6QDebuglsERK7QString,"axG",@progbits,_ZN6QDebuglsERK7QString,comdat
.LCOLDE17:
	.section	.text._ZN6QDebuglsERK7QString,"axG",@progbits,_ZN6QDebuglsERK7QString,comdat
.LHOTE17:
	.section	.text.unlikely._Z27qRegisterNormalizedMetaTypeIP14NewUserManagerEiRK10QByteArrayPT_N9QtPrivate21MetaTypeDefinedHelperIS5_Xaasr12QMetaTypeId2IS5_E7DefinedntsrSA_9IsBuiltInEE11DefinedTypeE,"axG",@progbits,_Z27qRegisterNormalizedMetaTypeIP14NewUserManagerEiRK10QByteArrayPT_N9QtPrivate21MetaTypeDefinedHelperIS5_Xaasr12QMetaTypeId2IS5_E7DefinedntsrSA_9IsBuiltInEE11DefinedTypeE,comdat
.LCOLDB18:
	.section	.text._Z27qRegisterNormalizedMetaTypeIP14NewUserManagerEiRK10QByteArrayPT_N9QtPrivate21MetaTypeDefinedHelperIS5_Xaasr12QMetaTypeId2IS5_E7DefinedntsrSA_9IsBuiltInEE11DefinedTypeE,"axG",@progbits,_Z27qRegisterNormalizedMetaTypeIP14NewUserManagerEiRK10QByteArrayPT_N9QtPrivate21MetaTypeDefinedHelperIS5_Xaasr12QMetaTypeId2IS5_E7DefinedntsrSA_9IsBuiltInEE11DefinedTypeE,comdat
.LHOTB18:
	.p2align 4,,15
	.weak	_Z27qRegisterNormalizedMetaTypeIP14NewUserManagerEiRK10QByteArrayPT_N9QtPrivate21MetaTypeDefinedHelperIS5_Xaasr12QMetaTypeId2IS5_E7DefinedntsrSA_9IsBuiltInEE11DefinedTypeE
	.type	_Z27qRegisterNormalizedMetaTypeIP14NewUserManagerEiRK10QByteArrayPT_N9QtPrivate21MetaTypeDefinedHelperIS5_Xaasr12QMetaTypeId2IS5_E7DefinedntsrSA_9IsBuiltInEE11DefinedTypeE, @function
_Z27qRegisterNormalizedMetaTypeIP14NewUserManagerEiRK10QByteArrayPT_N9QtPrivate21MetaTypeDefinedHelperIS5_Xaasr12QMetaTypeId2IS5_E7DefinedntsrSA_9IsBuiltInEE11DefinedTypeE:
.LFB16795:
	.cfi_startproc
	.cfi_personality 0x9b,DW.ref.__gxx_personality_v0
	.cfi_lsda 0x1b,.LLSDA16795
	pushq	%r14
	.cfi_def_cfa_offset 16
	.cfi_offset 14, -16
	pushq	%r13
	.cfi_def_cfa_offset 24
	.cfi_offset 13, -24
	pushq	%r12
	.cfi_def_cfa_offset 32
	.cfi_offset 12, -32
	pushq	%rbp
	.cfi_def_cfa_offset 40
	.cfi_offset 6, -40
	movl	%edx, %ebp
	pushq	%rbx
	.cfi_def_cfa_offset 48
	.cfi_offset 3, -48
	movq	%rdi, %rbx
	subq	$16, %rsp
	.cfi_def_cfa_offset 64
	movq	%fs:40, %rax
	movq	%rax, 8(%rsp)
	xorl	%eax, %eax
	testq	%rsi, %rsi
	je	.L109
.L86:
	cmpl	$1, %ebp
	movq	_ZN14NewUserManager16staticMetaObjectE@GOTPCREL(%rip), %r9
	movq	_ZN17QtMetaTypePrivate23QMetaTypeFunctionHelperIP14NewUserManagerLb1EE9ConstructEPvPKv@GOTPCREL(%rip), %rdx
	sbbl	%eax, %eax
	movq	_ZN17QtMetaTypePrivate23QMetaTypeFunctionHelperIP14NewUserManagerLb1EE8DestructEPv@GOTPCREL(%rip), %rsi
	movl	$8, %ecx
	xorb	%al, %al
	movq	%rbx, %rdi
	leal	268(%rax), %r8d
.LEHB0:
	call	_ZN9QMetaType22registerNormalizedTypeERK10QByteArrayPFvPvEPFS3_S3_PKvEi6QFlagsINS_8TypeFlagEEPK11QMetaObject@PLT
.L98:
	movq	8(%rsp), %rcx
	xorq	%fs:40, %rcx
	jne	.L110
	addq	$16, %rsp
	.cfi_remember_state
	.cfi_def_cfa_offset 48
	popq	%rbx
	.cfi_def_cfa_offset 40
	popq	%rbp
	.cfi_def_cfa_offset 32
	popq	%r12
	.cfi_def_cfa_offset 24
	popq	%r13
	.cfi_def_cfa_offset 16
	popq	%r14
	.cfi_def_cfa_offset 8
	ret
	.p2align 4,,10
	.p2align 3
.L109:
	.cfi_restore_state
	movq	_ZZN18QMetaTypeIdQObjectIP14NewUserManagerLi8EE14qt_metatype_idEvE11metatype_id@GOTPCREL(%rip), %r12
	movl	(%r12), %r13d
	testl	%r13d, %r13d
	je	.L111
.L87:
	cmpl	$-1, %r13d
	je	.L86
	movl	%r13d, %esi
	movq	%rbx, %rdi
	call	_ZN9QMetaType25registerNormalizedTypedefERK10QByteArrayi@PLT
	jmp	.L98
	.p2align 4,,10
	.p2align 3
.L111:
	movq	_ZN14NewUserManager16staticMetaObjectE@GOTPCREL(%rip), %rdi
	call	_ZNK11QMetaObject9classNameEv@PLT
.LEHE0:
	movq	_ZN10QArrayData11shared_nullE@GOTPCREL(%rip), %r14
	movq	%rax, %rdi
	movq	%rax, %r13
	movq	%r14, (%rsp)
	call	strlen@PLT
	movl	(%r14), %ecx
	leal	1(%rax), %edx
	cmpl	$1, %ecx
	jbe	.L112
.L89:
	cmpl	%edx, 4(%r14)
	movq	%rsp, %rdi
	cmovnb	4(%r14), %edx
	movq	%rsp, %r14
	leal	1(%rdx), %esi
	movl	$1, %edx
.LEHB1:
	call	_ZN10QByteArray11reallocDataEj6QFlagsIN10QArrayData16AllocationOptionEE@PLT
.L100:
	movq	%r13, %rsi
	movq	%r14, %rdi
	call	_ZN10QByteArray6appendEPKc@PLT
	movl	$42, %esi
	movq	%rax, %rdi
	call	_ZN10QByteArray6appendEc@PLT
	movl	$1, %edx
	movq	$-1, %rsi
	movq	%r14, %rdi
	call	_Z27qRegisterNormalizedMetaTypeIP14NewUserManagerEiRK10QByteArrayPT_N9QtPrivate21MetaTypeDefinedHelperIS5_Xaasr12QMetaTypeId2IS5_E7DefinedntsrSA_9IsBuiltInEE11DefinedTypeE@PLT
.LEHE1:
	movl	%eax, (%r12)
	movq	(%rsp), %rdi
	movl	%eax, %r13d
	movl	(%rdi), %edx
	testl	%edx, %edx
	je	.L95
	cmpl	$-1, %edx
	je	.L87
	lock subl	$1, (%rdi)
	jne	.L87
	movq	(%rsp), %rdi
	.p2align 4,,10
	.p2align 3
.L95:
	movl	$8, %edx
	movl	$1, %esi
	call	_ZN10QArrayData10deallocateEPS_mm@PLT
	jmp	.L87
.L112:
	movl	8(%r14), %ecx
	addl	$2, %eax
	andl	$2147483647, %ecx
	cmpl	%ecx, %eax
	ja	.L89
	orb	$-128, 11(%r14)
	movq	%rsp, %r14
	jmp	.L100
.L110:
	call	__stack_chk_fail@PLT
.L103:
	movq	%rax, %rbx
.L97:
	movq	%r14, %rdi
	call	_ZN10QByteArrayD1Ev@PLT
	movq	%rbx, %rdi
.LEHB2:
	call	_Unwind_Resume@PLT
.LEHE2:
	.cfi_endproc
.LFE16795:
	.section	.gcc_except_table._Z27qRegisterNormalizedMetaTypeIP14NewUserManagerEiRK10QByteArrayPT_N9QtPrivate21MetaTypeDefinedHelperIS5_Xaasr12QMetaTypeId2IS5_E7DefinedntsrSA_9IsBuiltInEE11DefinedTypeE,"aG",@progbits,_Z27qRegisterNormalizedMetaTypeIP14NewUserManagerEiRK10QByteArrayPT_N9QtPrivate21MetaTypeDefinedHelperIS5_Xaasr12QMetaTypeId2IS5_E7DefinedntsrSA_9IsBuiltInEE11DefinedTypeE,comdat
.LLSDA16795:
	.byte	0xff
	.byte	0xff
	.byte	0x1
	.uleb128 .LLSDACSE16795-.LLSDACSB16795
.LLSDACSB16795:
	.uleb128 .LEHB0-.LFB16795
	.uleb128 .LEHE0-.LEHB0
	.uleb128 0
	.uleb128 0
	.uleb128 .LEHB1-.LFB16795
	.uleb128 .LEHE1-.LEHB1
	.uleb128 .L103-.LFB16795
	.uleb128 0
	.uleb128 .LEHB2-.LFB16795
	.uleb128 .LEHE2-.LEHB2
	.uleb128 0
	.uleb128 0
.LLSDACSE16795:
	.section	.text._Z27qRegisterNormalizedMetaTypeIP14NewUserManagerEiRK10QByteArrayPT_N9QtPrivate21MetaTypeDefinedHelperIS5_Xaasr12QMetaTypeId2IS5_E7DefinedntsrSA_9IsBuiltInEE11DefinedTypeE,"axG",@progbits,_Z27qRegisterNormalizedMetaTypeIP14NewUserManagerEiRK10QByteArrayPT_N9QtPrivate21MetaTypeDefinedHelperIS5_Xaasr12QMetaTypeId2IS5_E7DefinedntsrSA_9IsBuiltInEE11DefinedTypeE,comdat
	.size	_Z27qRegisterNormalizedMetaTypeIP14NewUserManagerEiRK10QByteArrayPT_N9QtPrivate21MetaTypeDefinedHelperIS5_Xaasr12QMetaTypeId2IS5_E7DefinedntsrSA_9IsBuiltInEE11DefinedTypeE, .-_Z27qRegisterNormalizedMetaTypeIP14NewUserManagerEiRK10QByteArrayPT_N9QtPrivate21MetaTypeDefinedHelperIS5_Xaasr12QMetaTypeId2IS5_E7DefinedntsrSA_9IsBuiltInEE11DefinedTypeE
	.section	.text.unlikely._Z27qRegisterNormalizedMetaTypeIP14NewUserManagerEiRK10QByteArrayPT_N9QtPrivate21MetaTypeDefinedHelperIS5_Xaasr12QMetaTypeId2IS5_E7DefinedntsrSA_9IsBuiltInEE11DefinedTypeE,"axG",@progbits,_Z27qRegisterNormalizedMetaTypeIP14NewUserManagerEiRK10QByteArrayPT_N9QtPrivate21MetaTypeDefinedHelperIS5_Xaasr12QMetaTypeId2IS5_E7DefinedntsrSA_9IsBuiltInEE11DefinedTypeE,comdat
.LCOLDE18:
	.section	.text._Z27qRegisterNormalizedMetaTypeIP14NewUserManagerEiRK10QByteArrayPT_N9QtPrivate21MetaTypeDefinedHelperIS5_Xaasr12QMetaTypeId2IS5_E7DefinedntsrSA_9IsBuiltInEE11DefinedTypeE,"axG",@progbits,_Z27qRegisterNormalizedMetaTypeIP14NewUserManagerEiRK10QByteArrayPT_N9QtPrivate21MetaTypeDefinedHelperIS5_Xaasr12QMetaTypeId2IS5_E7DefinedntsrSA_9IsBuiltInEE11DefinedTypeE,comdat
.LHOTE18:
	.section	.text.unlikely._Z15qmlRegisterTypeI14NewUserManagerEiPKciiS2_,"axG",@progbits,_Z15qmlRegisterTypeI14NewUserManagerEiPKciiS2_,comdat
.LCOLDB19:
	.section	.text._Z15qmlRegisterTypeI14NewUserManagerEiPKciiS2_,"axG",@progbits,_Z15qmlRegisterTypeI14NewUserManagerEiPKciiS2_,comdat
.LHOTB19:
	.p2align 4,,15
	.weak	_Z15qmlRegisterTypeI14NewUserManagerEiPKciiS2_
	.type	_Z15qmlRegisterTypeI14NewUserManagerEiPKciiS2_, @function
_Z15qmlRegisterTypeI14NewUserManagerEiPKciiS2_:
.LFB16328:
	.cfi_startproc
	.cfi_personality 0x9b,DW.ref.__gxx_personality_v0
	.cfi_lsda 0x1b,.LLSDA16328
	pushq	%r15
	.cfi_def_cfa_offset 16
	.cfi_offset 15, -16
	pushq	%r14
	.cfi_def_cfa_offset 24
	.cfi_offset 14, -24
	movq	%rdi, %r15
	pushq	%r13
	.cfi_def_cfa_offset 32
	.cfi_offset 13, -32
	pushq	%r12
	.cfi_def_cfa_offset 40
	.cfi_offset 12, -40
	pushq	%rbp
	.cfi_def_cfa_offset 48
	.cfi_offset 6, -48
	pushq	%rbx
	.cfi_def_cfa_offset 56
	.cfi_offset 3, -56
	subq	$360, %rsp
	.cfi_def_cfa_offset 416
	movq	_ZN14NewUserManager16staticMetaObjectE@GOTPCREL(%rip), %rdi
	movl	%esi, 8(%rsp)
	movl	%edx, 12(%rsp)
	movq	%rcx, 16(%rsp)
	movq	%fs:40, %rax
	movq	%rax, 344(%rsp)
	xorl	%eax, %eax
.LEHB3:
	call	_ZNK11QMetaObject9classNameEv@PLT
.LEHE3:
	movq	%rax, %rdi
	movq	%rax, %r13
	call	strlen@PLT
	leal	2(%rax), %ebp
	movq	%rax, %rbx
	cmpl	$48, %ebp
	movl	%ebp, 196(%rsp)
	jg	.L156
	leaq	192(%rsp), %rbp
	movl	$48, 192(%rsp)
	leaq	16(%rbp), %rdi
	movq	%rdi, 200(%rsp)
.L116:
	movslq	%ebx, %r14
	movq	%r13, %rsi
	leal	19(%rbx), %r12d
	movq	%r14, %rdx
	call	memcpy@PLT
	movq	200(%rsp), %rax
	cmpl	$64, %r12d
	movb	$42, (%rax,%r14)
	leal	1(%rbx), %eax
	movq	200(%rsp), %rdx
	cltq
	movb	$0, (%rdx,%rax)
	movl	%r12d, 260(%rsp)
	jg	.L157
	leaq	256(%rsp), %r12
	movl	$64, 256(%rsp)
	leaq	16(%r12), %rax
	movq	%rax, 264(%rsp)
.L119:
	movabsq	$8391166307678900561, %rcx
	movabsq	$8751745755891331664, %rsi
	movq	%r14, %rdx
	movq	%rsi, 8(%rax)
	movq	%rcx, (%rax)
	movq	%r13, %rsi
	movq	264(%rsp), %rcx
	movb	$60, 16(%rax)
	leaq	32(%rsp), %r13
	leaq	17(%rcx), %rdi
	movq	%rcx, 24(%rsp)
	call	memcpy@PLT
	leal	17(%rbx), %eax
	movq	24(%rsp), %rcx
	addl	$18, %ebx
	movslq	%ebx, %rbx
	movl	$-1, %edx
	cltq
	movb	$62, (%rcx,%rax)
	movq	264(%rsp), %rax
	movl	$16, %ecx
	movb	$0, (%rax,%rbx)
	leaq	64(%rsp), %rbx
	xorl	%eax, %eax
	movq	200(%rsp), %rsi
	movq	%rbx, %rdi
	rep stosq
	movq	_ZN11QQmlPrivate10createIntoI14NewUserManagerEEvPv@GOTPCREL(%rip), %rax
	movq	%r13, %rdi
	movl	$24, 76(%rsp)
	movq	%rax, 80(%rsp)
	movq	_ZN14NewUserManager16staticMetaObjectE@GOTPCREL(%rip), %rax
	movq	%rax, 120(%rsp)
.LEHB4:
	call	_ZN10QByteArrayC1EPKci@PLT
.LEHE4:
	movl	$1, %edx
	xorl	%esi, %esi
	movq	%r13, %rdi
.LEHB5:
	call	_Z27qRegisterNormalizedMetaTypeIP14NewUserManagerEiRK10QByteArrayPT_N9QtPrivate21MetaTypeDefinedHelperIS5_Xaasr12QMetaTypeId2IS5_E7DefinedntsrSA_9IsBuiltInEE11DefinedTypeE@PLT
.LEHE5:
	movq	32(%rsp), %rdi
	movl	%eax, 68(%rsp)
	movl	(%rdi), %eax
	testl	%eax, %eax
	je	.L124
	cmpl	$-1, %eax
	je	.L121
	lock subl	$1, (%rdi)
	je	.L158
.L121:
	leaq	48(%rsp), %r13
	movq	264(%rsp), %rsi
	movl	$-1, %edx
	movq	%r13, %rdi
.LEHB6:
	call	_ZN10QByteArrayC1EPKci@PLT
.LEHE6:
	movq	_ZN17QtMetaTypePrivate23QMetaTypeFunctionHelperI16QQmlListPropertyI14NewUserManagerELb1EE9ConstructEPvPKv@GOTPCREL(%rip), %rdx
	movq	_ZN17QtMetaTypePrivate23QMetaTypeFunctionHelperI16QQmlListPropertyI14NewUserManagerELb1EE8DestructEPv@GOTPCREL(%rip), %rsi
	xorl	%r9d, %r9d
	movl	$3, %r8d
	movl	$64, %ecx
	movq	%r13, %rdi
.LEHB7:
	call	_ZN9QMetaType22registerNormalizedTypeERK10QByteArrayPFvPvEPFS3_S3_PKvEi6QFlagsINS_8TypeFlagEEPK11QMetaObject@PLT
.LEHE7:
	movq	48(%rsp), %rdi
	movl	%eax, 72(%rsp)
	movl	(%rdi), %eax
	testl	%eax, %eax
	je	.L129
	cmpl	$-1, %eax
	je	.L126
	lock subl	$1, (%rdi)
	je	.L159
.L126:
	movq	_ZN10QArrayData11shared_nullE@GOTPCREL(%rip), %rax
	movq	%rbx, %rsi
	xorl	%edi, %edi
	movq	%r15, 96(%rsp)
	movq	$0, 128(%rsp)
	movq	$0, 136(%rsp)
	movl	$-1, 144(%rsp)
	movq	%rax, 88(%rsp)
	movl	8(%rsp), %eax
	movl	$-1, 148(%rsp)
	movl	$-1, 152(%rsp)
	movl	%eax, 104(%rsp)
	movl	12(%rsp), %eax
	movl	%eax, 108(%rsp)
	movq	16(%rsp), %rax
	movq	%rax, 112(%rsp)
.LEHB8:
	call	_ZN11QQmlPrivate11qmlregisterENS_16RegistrationTypeEPv@PLT
.LEHE8:
	movq	88(%rsp), %rdi
	movl	%eax, %ebx
	movl	(%rdi), %eax
	testl	%eax, %eax
	je	.L134
	cmpl	$-1, %eax
	je	.L131
	lock subl	$1, (%rdi)
	je	.L160
.L131:
	movq	264(%rsp), %rdi
	addq	$16, %r12
	cmpq	%r12, %rdi
	je	.L135
	call	free@PLT
.L135:
	movq	200(%rsp), %rdi
	addq	$16, %rbp
	cmpq	%rbp, %rdi
	je	.L136
	call	free@PLT
.L136:
	movq	344(%rsp), %rdx
	xorq	%fs:40, %rdx
	movl	%ebx, %eax
	jne	.L161
	addq	$360, %rsp
	.cfi_remember_state
	.cfi_def_cfa_offset 56
	popq	%rbx
	.cfi_def_cfa_offset 48
	popq	%rbp
	.cfi_def_cfa_offset 40
	popq	%r12
	.cfi_def_cfa_offset 32
	popq	%r13
	.cfi_def_cfa_offset 24
	popq	%r14
	.cfi_def_cfa_offset 16
	popq	%r15
	.cfi_def_cfa_offset 8
	ret
.L160:
	.cfi_restore_state
	movq	88(%rsp), %rdi
	.p2align 4,,10
	.p2align 3
.L134:
	movl	$8, %edx
	movl	$2, %esi
	call	_ZN10QArrayData10deallocateEPS_mm@PLT
	jmp	.L131
.L159:
	movq	48(%rsp), %rdi
	.p2align 4,,10
	.p2align 3
.L129:
	movl	$8, %edx
	movl	$1, %esi
	call	_ZN10QArrayData10deallocateEPS_mm@PLT
	jmp	.L126
.L158:
	movq	32(%rsp), %rdi
	.p2align 4,,10
	.p2align 3
.L124:
	movl	$8, %edx
	movl	$1, %esi
	call	_ZN10QArrayData10deallocateEPS_mm@PLT
	jmp	.L121
	.p2align 4,,10
	.p2align 3
.L157:
	movslq	%r12d, %rdi
	call	malloc@PLT
	testq	%rax, %rax
	movq	%rax, 264(%rsp)
	je	.L162
.L118:
	movl	%r12d, 256(%rsp)
	leaq	256(%rsp), %r12
	jmp	.L119
	.p2align 4,,10
	.p2align 3
.L156:
	movslq	%ebp, %rdi
	call	malloc@PLT
	testq	%rax, %rax
	movq	%rax, 200(%rsp)
	movq	%rax, %rdi
	je	.L163
.L115:
	movl	%ebp, 192(%rsp)
	leaq	192(%rsp), %rbp
	jmp	.L116
	.p2align 4,,10
	.p2align 3
.L162:
.LEHB9:
	call	_Z9qBadAllocv@PLT
.LEHE9:
	movl	260(%rsp), %r12d
	movq	264(%rsp), %rax
	jmp	.L118
	.p2align 4,,10
	.p2align 3
.L163:
.LEHB10:
	call	_Z9qBadAllocv@PLT
	movl	196(%rsp), %ebp
	movq	200(%rsp), %rdi
	jmp	.L115
.L161:
	call	__stack_chk_fail@PLT
.L149:
.L154:
	movq	%rax, %rbx
	jmp	.L139
.L147:
	movq	%rax, %rbx
	jmp	.L142
.L139:
	movq	%r13, %rdi
	call	_ZN10QByteArrayD1Ev@PLT
.L138:
	movq	264(%rsp), %rdi
	addq	$16, %r12
	cmpq	%r12, %rdi
	je	.L142
	call	free@PLT
.L142:
	movq	200(%rsp), %rdi
	addq	$16, %rbp
	cmpq	%rbp, %rdi
	je	.L143
	call	free@PLT
.L143:
	movq	%rbx, %rdi
	call	_Unwind_Resume@PLT
.LEHE10:
.L150:
	jmp	.L154
.L148:
	movq	%rax, %rbx
	jmp	.L138
.L151:
	movq	%rax, %r13
.L140:
	leaq	24(%rbx), %rdi
	movq	%r13, %rbx
	call	_ZN7QStringD1Ev@PLT
	jmp	.L138
	.cfi_endproc
.LFE16328:
	.section	.gcc_except_table._Z15qmlRegisterTypeI14NewUserManagerEiPKciiS2_,"aG",@progbits,_Z15qmlRegisterTypeI14NewUserManagerEiPKciiS2_,comdat
.LLSDA16328:
	.byte	0xff
	.byte	0xff
	.byte	0x1
	.uleb128 .LLSDACSE16328-.LLSDACSB16328
.LLSDACSB16328:
	.uleb128 .LEHB3-.LFB16328
	.uleb128 .LEHE3-.LEHB3
	.uleb128 0
	.uleb128 0
	.uleb128 .LEHB4-.LFB16328
	.uleb128 .LEHE4-.LEHB4
	.uleb128 .L148-.LFB16328
	.uleb128 0
	.uleb128 .LEHB5-.LFB16328
	.uleb128 .LEHE5-.LEHB5
	.uleb128 .L149-.LFB16328
	.uleb128 0
	.uleb128 .LEHB6-.LFB16328
	.uleb128 .LEHE6-.LEHB6
	.uleb128 .L148-.LFB16328
	.uleb128 0
	.uleb128 .LEHB7-.LFB16328
	.uleb128 .LEHE7-.LEHB7
	.uleb128 .L150-.LFB16328
	.uleb128 0
	.uleb128 .LEHB8-.LFB16328
	.uleb128 .LEHE8-.LEHB8
	.uleb128 .L151-.LFB16328
	.uleb128 0
	.uleb128 .LEHB9-.LFB16328
	.uleb128 .LEHE9-.LEHB9
	.uleb128 .L147-.LFB16328
	.uleb128 0
	.uleb128 .LEHB10-.LFB16328
	.uleb128 .LEHE10-.LEHB10
	.uleb128 0
	.uleb128 0
.LLSDACSE16328:
	.section	.text._Z15qmlRegisterTypeI14NewUserManagerEiPKciiS2_,"axG",@progbits,_Z15qmlRegisterTypeI14NewUserManagerEiPKciiS2_,comdat
	.size	_Z15qmlRegisterTypeI14NewUserManagerEiPKciiS2_, .-_Z15qmlRegisterTypeI14NewUserManagerEiPKciiS2_
	.section	.text.unlikely._Z15qmlRegisterTypeI14NewUserManagerEiPKciiS2_,"axG",@progbits,_Z15qmlRegisterTypeI14NewUserManagerEiPKciiS2_,comdat
.LCOLDE19:
	.section	.text._Z15qmlRegisterTypeI14NewUserManagerEiPKciiS2_,"axG",@progbits,_Z15qmlRegisterTypeI14NewUserManagerEiPKciiS2_,comdat
.LHOTE19:
	.section	.text.unlikely._Z27qRegisterNormalizedMetaTypeIP13SessionsModelEiRK10QByteArrayPT_N9QtPrivate21MetaTypeDefinedHelperIS5_Xaasr12QMetaTypeId2IS5_E7DefinedntsrSA_9IsBuiltInEE11DefinedTypeE,"axG",@progbits,_Z27qRegisterNormalizedMetaTypeIP13SessionsModelEiRK10QByteArrayPT_N9QtPrivate21MetaTypeDefinedHelperIS5_Xaasr12QMetaTypeId2IS5_E7DefinedntsrSA_9IsBuiltInEE11DefinedTypeE,comdat
.LCOLDB20:
	.section	.text._Z27qRegisterNormalizedMetaTypeIP13SessionsModelEiRK10QByteArrayPT_N9QtPrivate21MetaTypeDefinedHelperIS5_Xaasr12QMetaTypeId2IS5_E7DefinedntsrSA_9IsBuiltInEE11DefinedTypeE,"axG",@progbits,_Z27qRegisterNormalizedMetaTypeIP13SessionsModelEiRK10QByteArrayPT_N9QtPrivate21MetaTypeDefinedHelperIS5_Xaasr12QMetaTypeId2IS5_E7DefinedntsrSA_9IsBuiltInEE11DefinedTypeE,comdat
.LHOTB20:
	.p2align 4,,15
	.weak	_Z27qRegisterNormalizedMetaTypeIP13SessionsModelEiRK10QByteArrayPT_N9QtPrivate21MetaTypeDefinedHelperIS5_Xaasr12QMetaTypeId2IS5_E7DefinedntsrSA_9IsBuiltInEE11DefinedTypeE
	.type	_Z27qRegisterNormalizedMetaTypeIP13SessionsModelEiRK10QByteArrayPT_N9QtPrivate21MetaTypeDefinedHelperIS5_Xaasr12QMetaTypeId2IS5_E7DefinedntsrSA_9IsBuiltInEE11DefinedTypeE, @function
_Z27qRegisterNormalizedMetaTypeIP13SessionsModelEiRK10QByteArrayPT_N9QtPrivate21MetaTypeDefinedHelperIS5_Xaasr12QMetaTypeId2IS5_E7DefinedntsrSA_9IsBuiltInEE11DefinedTypeE:
.LFB16814:
	.cfi_startproc
	.cfi_personality 0x9b,DW.ref.__gxx_personality_v0
	.cfi_lsda 0x1b,.LLSDA16814
	pushq	%r14
	.cfi_def_cfa_offset 16
	.cfi_offset 14, -16
	pushq	%r13
	.cfi_def_cfa_offset 24
	.cfi_offset 13, -24
	pushq	%r12
	.cfi_def_cfa_offset 32
	.cfi_offset 12, -32
	pushq	%rbp
	.cfi_def_cfa_offset 40
	.cfi_offset 6, -40
	movl	%edx, %ebp
	pushq	%rbx
	.cfi_def_cfa_offset 48
	.cfi_offset 3, -48
	movq	%rdi, %rbx
	subq	$16, %rsp
	.cfi_def_cfa_offset 64
	movq	%fs:40, %rax
	movq	%rax, 8(%rsp)
	xorl	%eax, %eax
	testq	%rsi, %rsi
	je	.L188
.L165:
	cmpl	$1, %ebp
	movq	_ZN13SessionsModel16staticMetaObjectE@GOTPCREL(%rip), %r9
	movq	_ZN17QtMetaTypePrivate23QMetaTypeFunctionHelperIP13SessionsModelLb1EE9ConstructEPvPKv@GOTPCREL(%rip), %rdx
	sbbl	%eax, %eax
	movq	_ZN17QtMetaTypePrivate23QMetaTypeFunctionHelperIP13SessionsModelLb1EE8DestructEPv@GOTPCREL(%rip), %rsi
	movl	$8, %ecx
	xorb	%al, %al
	movq	%rbx, %rdi
	leal	268(%rax), %r8d
.LEHB11:
	call	_ZN9QMetaType22registerNormalizedTypeERK10QByteArrayPFvPvEPFS3_S3_PKvEi6QFlagsINS_8TypeFlagEEPK11QMetaObject@PLT
.L177:
	movq	8(%rsp), %rcx
	xorq	%fs:40, %rcx
	jne	.L189
	addq	$16, %rsp
	.cfi_remember_state
	.cfi_def_cfa_offset 48
	popq	%rbx
	.cfi_def_cfa_offset 40
	popq	%rbp
	.cfi_def_cfa_offset 32
	popq	%r12
	.cfi_def_cfa_offset 24
	popq	%r13
	.cfi_def_cfa_offset 16
	popq	%r14
	.cfi_def_cfa_offset 8
	ret
	.p2align 4,,10
	.p2align 3
.L188:
	.cfi_restore_state
	movq	_ZZN18QMetaTypeIdQObjectIP13SessionsModelLi8EE14qt_metatype_idEvE11metatype_id@GOTPCREL(%rip), %r12
	movl	(%r12), %r13d
	testl	%r13d, %r13d
	je	.L190
.L166:
	cmpl	$-1, %r13d
	je	.L165
	movl	%r13d, %esi
	movq	%rbx, %rdi
	call	_ZN9QMetaType25registerNormalizedTypedefERK10QByteArrayi@PLT
	jmp	.L177
	.p2align 4,,10
	.p2align 3
.L190:
	movq	_ZN13SessionsModel16staticMetaObjectE@GOTPCREL(%rip), %rdi
	call	_ZNK11QMetaObject9classNameEv@PLT
.LEHE11:
	movq	_ZN10QArrayData11shared_nullE@GOTPCREL(%rip), %r14
	movq	%rax, %rdi
	movq	%rax, %r13
	movq	%r14, (%rsp)
	call	strlen@PLT
	movl	(%r14), %ecx
	leal	1(%rax), %edx
	cmpl	$1, %ecx
	jbe	.L191
.L168:
	cmpl	%edx, 4(%r14)
	movq	%rsp, %rdi
	cmovnb	4(%r14), %edx
	movq	%rsp, %r14
	leal	1(%rdx), %esi
	movl	$1, %edx
.LEHB12:
	call	_ZN10QByteArray11reallocDataEj6QFlagsIN10QArrayData16AllocationOptionEE@PLT
.L179:
	movq	%r13, %rsi
	movq	%r14, %rdi
	call	_ZN10QByteArray6appendEPKc@PLT
	movl	$42, %esi
	movq	%rax, %rdi
	call	_ZN10QByteArray6appendEc@PLT
	movl	$1, %edx
	movq	$-1, %rsi
	movq	%r14, %rdi
	call	_Z27qRegisterNormalizedMetaTypeIP13SessionsModelEiRK10QByteArrayPT_N9QtPrivate21MetaTypeDefinedHelperIS5_Xaasr12QMetaTypeId2IS5_E7DefinedntsrSA_9IsBuiltInEE11DefinedTypeE@PLT
.LEHE12:
	movl	%eax, (%r12)
	movq	(%rsp), %rdi
	movl	%eax, %r13d
	movl	(%rdi), %edx
	testl	%edx, %edx
	je	.L174
	cmpl	$-1, %edx
	je	.L166
	lock subl	$1, (%rdi)
	jne	.L166
	movq	(%rsp), %rdi
	.p2align 4,,10
	.p2align 3
.L174:
	movl	$8, %edx
	movl	$1, %esi
	call	_ZN10QArrayData10deallocateEPS_mm@PLT
	jmp	.L166
.L191:
	movl	8(%r14), %ecx
	addl	$2, %eax
	andl	$2147483647, %ecx
	cmpl	%ecx, %eax
	ja	.L168
	orb	$-128, 11(%r14)
	movq	%rsp, %r14
	jmp	.L179
.L189:
	call	__stack_chk_fail@PLT
.L182:
	movq	%rax, %rbx
.L176:
	movq	%r14, %rdi
	call	_ZN10QByteArrayD1Ev@PLT
	movq	%rbx, %rdi
.LEHB13:
	call	_Unwind_Resume@PLT
.LEHE13:
	.cfi_endproc
.LFE16814:
	.section	.gcc_except_table._Z27qRegisterNormalizedMetaTypeIP13SessionsModelEiRK10QByteArrayPT_N9QtPrivate21MetaTypeDefinedHelperIS5_Xaasr12QMetaTypeId2IS5_E7DefinedntsrSA_9IsBuiltInEE11DefinedTypeE,"aG",@progbits,_Z27qRegisterNormalizedMetaTypeIP13SessionsModelEiRK10QByteArrayPT_N9QtPrivate21MetaTypeDefinedHelperIS5_Xaasr12QMetaTypeId2IS5_E7DefinedntsrSA_9IsBuiltInEE11DefinedTypeE,comdat
.LLSDA16814:
	.byte	0xff
	.byte	0xff
	.byte	0x1
	.uleb128 .LLSDACSE16814-.LLSDACSB16814
.LLSDACSB16814:
	.uleb128 .LEHB11-.LFB16814
	.uleb128 .LEHE11-.LEHB11
	.uleb128 0
	.uleb128 0
	.uleb128 .LEHB12-.LFB16814
	.uleb128 .LEHE12-.LEHB12
	.uleb128 .L182-.LFB16814
	.uleb128 0
	.uleb128 .LEHB13-.LFB16814
	.uleb128 .LEHE13-.LEHB13
	.uleb128 0
	.uleb128 0
.LLSDACSE16814:
	.section	.text._Z27qRegisterNormalizedMetaTypeIP13SessionsModelEiRK10QByteArrayPT_N9QtPrivate21MetaTypeDefinedHelperIS5_Xaasr12QMetaTypeId2IS5_E7DefinedntsrSA_9IsBuiltInEE11DefinedTypeE,"axG",@progbits,_Z27qRegisterNormalizedMetaTypeIP13SessionsModelEiRK10QByteArrayPT_N9QtPrivate21MetaTypeDefinedHelperIS5_Xaasr12QMetaTypeId2IS5_E7DefinedntsrSA_9IsBuiltInEE11DefinedTypeE,comdat
	.size	_Z27qRegisterNormalizedMetaTypeIP13SessionsModelEiRK10QByteArrayPT_N9QtPrivate21MetaTypeDefinedHelperIS5_Xaasr12QMetaTypeId2IS5_E7DefinedntsrSA_9IsBuiltInEE11DefinedTypeE, .-_Z27qRegisterNormalizedMetaTypeIP13SessionsModelEiRK10QByteArrayPT_N9QtPrivate21MetaTypeDefinedHelperIS5_Xaasr12QMetaTypeId2IS5_E7DefinedntsrSA_9IsBuiltInEE11DefinedTypeE
	.section	.text.unlikely._Z27qRegisterNormalizedMetaTypeIP13SessionsModelEiRK10QByteArrayPT_N9QtPrivate21MetaTypeDefinedHelperIS5_Xaasr12QMetaTypeId2IS5_E7DefinedntsrSA_9IsBuiltInEE11DefinedTypeE,"axG",@progbits,_Z27qRegisterNormalizedMetaTypeIP13SessionsModelEiRK10QByteArrayPT_N9QtPrivate21MetaTypeDefinedHelperIS5_Xaasr12QMetaTypeId2IS5_E7DefinedntsrSA_9IsBuiltInEE11DefinedTypeE,comdat
.LCOLDE20:
	.section	.text._Z27qRegisterNormalizedMetaTypeIP13SessionsModelEiRK10QByteArrayPT_N9QtPrivate21MetaTypeDefinedHelperIS5_Xaasr12QMetaTypeId2IS5_E7DefinedntsrSA_9IsBuiltInEE11DefinedTypeE,"axG",@progbits,_Z27qRegisterNormalizedMetaTypeIP13SessionsModelEiRK10QByteArrayPT_N9QtPrivate21MetaTypeDefinedHelperIS5_Xaasr12QMetaTypeId2IS5_E7DefinedntsrSA_9IsBuiltInEE11DefinedTypeE,comdat
.LHOTE20:
	.section	.text.unlikely._Z15qmlRegisterTypeI13SessionsModelEiPKciiS2_,"axG",@progbits,_Z15qmlRegisterTypeI13SessionsModelEiPKciiS2_,comdat
.LCOLDB21:
	.section	.text._Z15qmlRegisterTypeI13SessionsModelEiPKciiS2_,"axG",@progbits,_Z15qmlRegisterTypeI13SessionsModelEiPKciiS2_,comdat
.LHOTB21:
	.p2align 4,,15
	.weak	_Z15qmlRegisterTypeI13SessionsModelEiPKciiS2_
	.type	_Z15qmlRegisterTypeI13SessionsModelEiPKciiS2_, @function
_Z15qmlRegisterTypeI13SessionsModelEiPKciiS2_:
.LFB16332:
	.cfi_startproc
	.cfi_personality 0x9b,DW.ref.__gxx_personality_v0
	.cfi_lsda 0x1b,.LLSDA16332
	pushq	%r15
	.cfi_def_cfa_offset 16
	.cfi_offset 15, -16
	pushq	%r14
	.cfi_def_cfa_offset 24
	.cfi_offset 14, -24
	movq	%rdi, %r15
	pushq	%r13
	.cfi_def_cfa_offset 32
	.cfi_offset 13, -32
	pushq	%r12
	.cfi_def_cfa_offset 40
	.cfi_offset 12, -40
	pushq	%rbp
	.cfi_def_cfa_offset 48
	.cfi_offset 6, -48
	pushq	%rbx
	.cfi_def_cfa_offset 56
	.cfi_offset 3, -56
	subq	$360, %rsp
	.cfi_def_cfa_offset 416
	movq	_ZN13SessionsModel16staticMetaObjectE@GOTPCREL(%rip), %rdi
	movl	%esi, 8(%rsp)
	movl	%edx, 12(%rsp)
	movq	%rcx, 16(%rsp)
	movq	%fs:40, %rax
	movq	%rax, 344(%rsp)
	xorl	%eax, %eax
.LEHB14:
	call	_ZNK11QMetaObject9classNameEv@PLT
.LEHE14:
	movq	%rax, %rdi
	movq	%rax, %r13
	call	strlen@PLT
	leal	2(%rax), %ebp
	movq	%rax, %rbx
	cmpl	$48, %ebp
	movl	%ebp, 196(%rsp)
	jg	.L235
	leaq	192(%rsp), %rbp
	movl	$48, 192(%rsp)
	leaq	16(%rbp), %rdi
	movq	%rdi, 200(%rsp)
.L195:
	movslq	%ebx, %r14
	movq	%r13, %rsi
	leal	19(%rbx), %r12d
	movq	%r14, %rdx
	call	memcpy@PLT
	movq	200(%rsp), %rax
	cmpl	$64, %r12d
	movb	$42, (%rax,%r14)
	leal	1(%rbx), %eax
	movq	200(%rsp), %rdx
	cltq
	movb	$0, (%rdx,%rax)
	movl	%r12d, 260(%rsp)
	jg	.L236
	leaq	256(%rsp), %r12
	movl	$64, 256(%rsp)
	leaq	16(%r12), %rax
	movq	%rax, 264(%rsp)
.L198:
	movabsq	$8391166307678900561, %rcx
	movabsq	$8751745755891331664, %rsi
	movq	%r14, %rdx
	movq	%rsi, 8(%rax)
	movq	%rcx, (%rax)
	movq	%r13, %rsi
	movq	264(%rsp), %rcx
	movb	$60, 16(%rax)
	leaq	32(%rsp), %r13
	leaq	17(%rcx), %rdi
	movq	%rcx, 24(%rsp)
	call	memcpy@PLT
	leal	17(%rbx), %eax
	movq	24(%rsp), %rcx
	addl	$18, %ebx
	movslq	%ebx, %rbx
	movl	$-1, %edx
	cltq
	movb	$62, (%rcx,%rax)
	movq	264(%rsp), %rax
	movl	$16, %ecx
	movb	$0, (%rax,%rbx)
	leaq	64(%rsp), %rbx
	xorl	%eax, %eax
	movq	200(%rsp), %rsi
	movq	%rbx, %rdi
	rep stosq
	movq	_ZN11QQmlPrivate10createIntoI13SessionsModelEEvPv@GOTPCREL(%rip), %rax
	movq	%r13, %rdi
	movl	$40, 76(%rsp)
	movq	%rax, 80(%rsp)
	movq	_ZN13SessionsModel16staticMetaObjectE@GOTPCREL(%rip), %rax
	movq	%rax, 120(%rsp)
.LEHB15:
	call	_ZN10QByteArrayC1EPKci@PLT
.LEHE15:
	movl	$1, %edx
	xorl	%esi, %esi
	movq	%r13, %rdi
.LEHB16:
	call	_Z27qRegisterNormalizedMetaTypeIP13SessionsModelEiRK10QByteArrayPT_N9QtPrivate21MetaTypeDefinedHelperIS5_Xaasr12QMetaTypeId2IS5_E7DefinedntsrSA_9IsBuiltInEE11DefinedTypeE@PLT
.LEHE16:
	movq	32(%rsp), %rdi
	movl	%eax, 68(%rsp)
	movl	(%rdi), %eax
	testl	%eax, %eax
	je	.L203
	cmpl	$-1, %eax
	je	.L200
	lock subl	$1, (%rdi)
	je	.L237
.L200:
	leaq	48(%rsp), %r13
	movq	264(%rsp), %rsi
	movl	$-1, %edx
	movq	%r13, %rdi
.LEHB17:
	call	_ZN10QByteArrayC1EPKci@PLT
.LEHE17:
	movq	_ZN17QtMetaTypePrivate23QMetaTypeFunctionHelperI16QQmlListPropertyI13SessionsModelELb1EE9ConstructEPvPKv@GOTPCREL(%rip), %rdx
	movq	_ZN17QtMetaTypePrivate23QMetaTypeFunctionHelperI16QQmlListPropertyI13SessionsModelELb1EE8DestructEPv@GOTPCREL(%rip), %rsi
	xorl	%r9d, %r9d
	movl	$3, %r8d
	movl	$64, %ecx
	movq	%r13, %rdi
.LEHB18:
	call	_ZN9QMetaType22registerNormalizedTypeERK10QByteArrayPFvPvEPFS3_S3_PKvEi6QFlagsINS_8TypeFlagEEPK11QMetaObject@PLT
.LEHE18:
	movq	48(%rsp), %rdi
	movl	%eax, 72(%rsp)
	movl	(%rdi), %eax
	testl	%eax, %eax
	je	.L208
	cmpl	$-1, %eax
	je	.L205
	lock subl	$1, (%rdi)
	je	.L238
.L205:
	movq	_ZN10QArrayData11shared_nullE@GOTPCREL(%rip), %rax
	movq	%rbx, %rsi
	xorl	%edi, %edi
	movq	%r15, 96(%rsp)
	movq	$0, 128(%rsp)
	movq	$0, 136(%rsp)
	movl	$-1, 144(%rsp)
	movq	%rax, 88(%rsp)
	movl	8(%rsp), %eax
	movl	$-1, 148(%rsp)
	movl	$-1, 152(%rsp)
	movl	%eax, 104(%rsp)
	movl	12(%rsp), %eax
	movl	%eax, 108(%rsp)
	movq	16(%rsp), %rax
	movq	%rax, 112(%rsp)
.LEHB19:
	call	_ZN11QQmlPrivate11qmlregisterENS_16RegistrationTypeEPv@PLT
.LEHE19:
	movq	88(%rsp), %rdi
	movl	%eax, %ebx
	movl	(%rdi), %eax
	testl	%eax, %eax
	je	.L213
	cmpl	$-1, %eax
	je	.L210
	lock subl	$1, (%rdi)
	je	.L239
.L210:
	movq	264(%rsp), %rdi
	addq	$16, %r12
	cmpq	%r12, %rdi
	je	.L214
	call	free@PLT
.L214:
	movq	200(%rsp), %rdi
	addq	$16, %rbp
	cmpq	%rbp, %rdi
	je	.L215
	call	free@PLT
.L215:
	movq	344(%rsp), %rdx
	xorq	%fs:40, %rdx
	movl	%ebx, %eax
	jne	.L240
	addq	$360, %rsp
	.cfi_remember_state
	.cfi_def_cfa_offset 56
	popq	%rbx
	.cfi_def_cfa_offset 48
	popq	%rbp
	.cfi_def_cfa_offset 40
	popq	%r12
	.cfi_def_cfa_offset 32
	popq	%r13
	.cfi_def_cfa_offset 24
	popq	%r14
	.cfi_def_cfa_offset 16
	popq	%r15
	.cfi_def_cfa_offset 8
	ret
.L239:
	.cfi_restore_state
	movq	88(%rsp), %rdi
	.p2align 4,,10
	.p2align 3
.L213:
	movl	$8, %edx
	movl	$2, %esi
	call	_ZN10QArrayData10deallocateEPS_mm@PLT
	jmp	.L210
.L238:
	movq	48(%rsp), %rdi
	.p2align 4,,10
	.p2align 3
.L208:
	movl	$8, %edx
	movl	$1, %esi
	call	_ZN10QArrayData10deallocateEPS_mm@PLT
	jmp	.L205
.L237:
	movq	32(%rsp), %rdi
	.p2align 4,,10
	.p2align 3
.L203:
	movl	$8, %edx
	movl	$1, %esi
	call	_ZN10QArrayData10deallocateEPS_mm@PLT
	jmp	.L200
	.p2align 4,,10
	.p2align 3
.L236:
	movslq	%r12d, %rdi
	call	malloc@PLT
	testq	%rax, %rax
	movq	%rax, 264(%rsp)
	je	.L241
.L197:
	movl	%r12d, 256(%rsp)
	leaq	256(%rsp), %r12
	jmp	.L198
	.p2align 4,,10
	.p2align 3
.L235:
	movslq	%ebp, %rdi
	call	malloc@PLT
	testq	%rax, %rax
	movq	%rax, 200(%rsp)
	movq	%rax, %rdi
	je	.L242
.L194:
	movl	%ebp, 192(%rsp)
	leaq	192(%rsp), %rbp
	jmp	.L195
	.p2align 4,,10
	.p2align 3
.L241:
.LEHB20:
	call	_Z9qBadAllocv@PLT
.LEHE20:
	movl	260(%rsp), %r12d
	movq	264(%rsp), %rax
	jmp	.L197
	.p2align 4,,10
	.p2align 3
.L242:
.LEHB21:
	call	_Z9qBadAllocv@PLT
	movl	196(%rsp), %ebp
	movq	200(%rsp), %rdi
	jmp	.L194
.L240:
	call	__stack_chk_fail@PLT
.L228:
.L233:
	movq	%rax, %rbx
	jmp	.L218
.L226:
	movq	%rax, %rbx
	jmp	.L221
.L218:
	movq	%r13, %rdi
	call	_ZN10QByteArrayD1Ev@PLT
.L217:
	movq	264(%rsp), %rdi
	addq	$16, %r12
	cmpq	%r12, %rdi
	je	.L221
	call	free@PLT
.L221:
	movq	200(%rsp), %rdi
	addq	$16, %rbp
	cmpq	%rbp, %rdi
	je	.L222
	call	free@PLT
.L222:
	movq	%rbx, %rdi
	call	_Unwind_Resume@PLT
.LEHE21:
.L229:
	jmp	.L233
.L227:
	movq	%rax, %rbx
	jmp	.L217
.L230:
	movq	%rax, %r13
.L219:
	leaq	24(%rbx), %rdi
	movq	%r13, %rbx
	call	_ZN7QStringD1Ev@PLT
	jmp	.L217
	.cfi_endproc
.LFE16332:
	.section	.gcc_except_table._Z15qmlRegisterTypeI13SessionsModelEiPKciiS2_,"aG",@progbits,_Z15qmlRegisterTypeI13SessionsModelEiPKciiS2_,comdat
.LLSDA16332:
	.byte	0xff
	.byte	0xff
	.byte	0x1
	.uleb128 .LLSDACSE16332-.LLSDACSB16332
.LLSDACSB16332:
	.uleb128 .LEHB14-.LFB16332
	.uleb128 .LEHE14-.LEHB14
	.uleb128 0
	.uleb128 0
	.uleb128 .LEHB15-.LFB16332
	.uleb128 .LEHE15-.LEHB15
	.uleb128 .L227-.LFB16332
	.uleb128 0
	.uleb128 .LEHB16-.LFB16332
	.uleb128 .LEHE16-.LEHB16
	.uleb128 .L228-.LFB16332
	.uleb128 0
	.uleb128 .LEHB17-.LFB16332
	.uleb128 .LEHE17-.LEHB17
	.uleb128 .L227-.LFB16332
	.uleb128 0
	.uleb128 .LEHB18-.LFB16332
	.uleb128 .LEHE18-.LEHB18
	.uleb128 .L229-.LFB16332
	.uleb128 0
	.uleb128 .LEHB19-.LFB16332
	.uleb128 .LEHE19-.LEHB19
	.uleb128 .L230-.LFB16332
	.uleb128 0
	.uleb128 .LEHB20-.LFB16332
	.uleb128 .LEHE20-.LEHB20
	.uleb128 .L226-.LFB16332
	.uleb128 0
	.uleb128 .LEHB21-.LFB16332
	.uleb128 .LEHE21-.LEHB21
	.uleb128 0
	.uleb128 0
.LLSDACSE16332:
	.section	.text._Z15qmlRegisterTypeI13SessionsModelEiPKciiS2_,"axG",@progbits,_Z15qmlRegisterTypeI13SessionsModelEiPKciiS2_,comdat
	.size	_Z15qmlRegisterTypeI13SessionsModelEiPKciiS2_, .-_Z15qmlRegisterTypeI13SessionsModelEiPKciiS2_
	.section	.text.unlikely._Z15qmlRegisterTypeI13SessionsModelEiPKciiS2_,"axG",@progbits,_Z15qmlRegisterTypeI13SessionsModelEiPKciiS2_,comdat
.LCOLDE21:
	.section	.text._Z15qmlRegisterTypeI13SessionsModelEiPKciiS2_,"axG",@progbits,_Z15qmlRegisterTypeI13SessionsModelEiPKciiS2_,comdat
.LHOTE21:
	.section	.rodata.str1.8,"aMS",@progbits,1
	.align 8
.LC22:
	.string	"sub-c-0c523a04-d172-11e6-b045-02ee2ddab7fe"
	.align 8
.LC23:
	.string	"pub-c-ed602478-ff17-43d0-bffc-8a7bbf288bec"
	.section	.text.unlikely,"ax",@progbits
.LCOLDB24:
	.section	.text.startup,"ax",@progbits
.LHOTB24:
	.p2align 4,,15
	.type	_GLOBAL__sub_I_main.cpp, @function
_GLOBAL__sub_I_main.cpp:
.LFB17807:
	.cfi_startproc
	pushq	%rbx
	.cfi_def_cfa_offset 16
	.cfi_offset 3, -16
	leaq	.LC22(%rip), %rsi
	leaq	_ZN4KeysL11pnSubscribeE(%rip), %rdi
	call	_ZN7QStringC1EPKc@PLT
	movq	_ZN7QStringD1Ev@GOTPCREL(%rip), %rbx
	leaq	__dso_handle(%rip), %rdx
	leaq	_ZN4KeysL11pnSubscribeE(%rip), %rsi
	movq	%rbx, %rdi
	call	__cxa_atexit@PLT
	leaq	.LC23(%rip), %rsi
	leaq	_ZN4KeysL9pnPublishE(%rip), %rdi
	call	_ZN7QStringC1EPKc@PLT
	movq	%rbx, %rdi
	leaq	__dso_handle(%rip), %rdx
	leaq	_ZN4KeysL9pnPublishE(%rip), %rsi
	popq	%rbx
	.cfi_def_cfa_offset 8
	jmp	__cxa_atexit@PLT
	.cfi_endproc
.LFE17807:
	.size	_GLOBAL__sub_I_main.cpp, .-_GLOBAL__sub_I_main.cpp
	.section	.text.unlikely
.LCOLDE24:
	.section	.text.startup
.LHOTE24:
	.section	.init_array,"aw"
	.align 8
	.quad	_GLOBAL__sub_I_main.cpp
	.section	.rodata.str1.1,"aMS",@progbits,1
.LC25:
	.string	"Gooseberry"
.LC26:
	.string	"Homeseed"
.LC27:
	.string	"Universal"
.LC28:
	.string	"Qt App"
.LC29:
	.string	"default"
.LC30:
	.string	"CLIENT INFO:"
.LC31:
	.string	"test"
.LC32:
	.string	"session/%s"
.LC33:
	.string	"KeyReceiver"
.LC34:
	.string	"Session"
.LC35:
	.string	"NewUserManager"
.LC36:
	.string	"HSS"
.LC37:
	.string	"SessionsModel"
.LC38:
	.string	"qrc:/main.qml"
	.section	.text.unlikely
.LCOLDB39:
	.section	.text.startup
.LHOTB39:
	.p2align 4,,15
	.globl	main
	.type	main, @function
main:
.LFB15849:
	.cfi_startproc
	.cfi_personality 0x9b,DW.ref.__gxx_personality_v0
	.cfi_lsda 0x1b,.LLSDA15849
	pushq	%r15
	.cfi_def_cfa_offset 16
	.cfi_offset 15, -16
	pushq	%r14
	.cfi_def_cfa_offset 24
	.cfi_offset 14, -24
	pushq	%r13
	.cfi_def_cfa_offset 32
	.cfi_offset 13, -32
	pushq	%r12
	.cfi_def_cfa_offset 40
	.cfi_offset 12, -40
	pushq	%rbp
	.cfi_def_cfa_offset 48
	.cfi_offset 6, -48
	pushq	%rbx
	.cfi_def_cfa_offset 56
	.cfi_offset 3, -56
	movq	%rsi, %rbp
	leaq	.LC25(%rip), %rsi
	subq	$280, %rsp
	.cfi_def_cfa_offset 336
	leaq	224(%rsp), %rbx
	movl	%edi, 28(%rsp)
	movq	%fs:40, %rax
	movq	%rax, 264(%rsp)
	xorl	%eax, %eax
	movq	%rbx, %rdi
.LEHB22:
	call	_ZN7QStringC1EPKc@PLT
.LEHE22:
	movq	%rbx, %rdi
.LEHB23:
	call	_ZN16QCoreApplication19setOrganizationNameERK7QString@PLT
.LEHE23:
	movq	%rbx, %rdi
	call	_ZN7QStringD1Ev@PLT
	leaq	.LC26(%rip), %rsi
	movq	%rbx, %rdi
.LEHB24:
	call	_ZN7QStringC1EPKc@PLT
.LEHE24:
	movq	%rbx, %rdi
.LEHB25:
	call	_ZN16QCoreApplication18setApplicationNameERK7QString@PLT
.LEHE25:
	movq	%rbx, %rdi
	call	_ZN7QStringD1Ev@PLT
	movl	$1, %esi
	movl	$20, %edi
.LEHB26:
	call	_ZN16QCoreApplication12setAttributeEN2Qt20ApplicationAttributeEb@PLT
	leaq	176(%rsp), %rax
	leaq	28(%rsp), %rsi
	movq	%rbp, %rdx
	movl	$329728, %ecx
	leaq	32(%rsp), %rbp
	movq	%rax, %rdi
	movq	%rax, %r13
	movq	%rax, 8(%rsp)
	call	_ZN15QGuiApplicationC1ERiPPci@PLT
.LEHE26:
	leaq	.LC27(%rip), %rsi
	movq	%rbp, %rdi
.LEHB27:
	call	_ZN7QStringC1EPKc@PLT
.LEHE27:
	movq	%rbp, %rdi
.LEHB28:
	call	_ZN11QQuickStyle8setStyleERK7QString@PLT
.LEHE28:
	leaq	192(%rsp), %r12
	movq	%rbp, %rdi
	call	_ZN7QStringD1Ev@PLT
	xorl	%esi, %esi
	movq	%r12, %rdi
.LEHB29:
	call	_ZN21QQmlApplicationEngineC1EP7QObject@PLT
.LEHE29:
	movq	%r12, %rdi
.LEHB30:
	call	_ZNK10QQmlEngine11rootContextEv@PLT
	leaq	48(%rsp), %rbp
	leaq	.LC28(%rip), %rsi
	movq	%rax, 16(%rsp)
	movq	%rbp, %rdi
	call	_ZN7QStringC1EPKc@PLT
.LEHE30:
	movl	$56, %edi
.LEHB31:
	call	_Znwm@PLT
.LEHE31:
	xorl	%edx, %edx
	movq	%rbp, %rsi
	movq	%rax, %rdi
	movq	%rax, %r15
.LEHB32:
	call	_ZN14SessionManagerC1E7QStringP7QObject@PLT
.LEHE32:
	movq	%rbp, %rdi
	call	_ZN7QStringD1Ev@PLT
	movl	$24, %edi
.LEHB33:
	call	_Znwm@PLT
.LEHE33:
	xorl	%esi, %esi
	movq	%rax, %rdi
	movq	%rax, %r14
.LEHB34:
	call	_ZN11KeyReceiverC1EP7QObject@PLT
.LEHE34:
	movq	%r14, %rsi
	movq	%r13, %rdi
.LEHB35:
	call	_ZN7QObject18installEventFilterEPS_@PLT
	leaq	80(%rsp), %rax
	movq	%r15, %rsi
	movq	%rax, %rdi
	movq	%rax, (%rsp)
	call	_ZN14SessionManager13getClientInfoEv@PLT
.LEHE35:
	leaq	64(%rsp), %r13
	leaq	.LC29(%rip), %rax
	movq	%rbx, %rsi
	movl	$2, 224(%rsp)
	movl	$0, 228(%rsp)
	movq	%r13, %rdi
	movq	$0, 232(%rsp)
	movq	$0, 240(%rsp)
	movq	%rax, 248(%rsp)
.LEHB36:
	call	_ZNK14QMessageLogger4infoEv@PLT
.LEHE36:
	leaq	160(%rsp), %rbp
	leaq	.LC30(%rip), %rsi
	movl	$12, %edx
	movq	%rbp, %rdi
.LEHB37:
	call	_ZN7QString15fromUtf8_helperEPKci@PLT
.LEHE37:
	movq	64(%rsp), %rdi
	movq	%rbp, %rsi
.LEHB38:
	call	_ZN11QTextStreamlsERK7QString@PLT
.LEHE38:
	movq	160(%rsp), %rdi
	movl	(%rdi), %eax
	testl	%eax, %eax
	je	.L250
	addl	$1, %eax
	je	.L247
	orl	$-1, %eax
	lock xaddl	%eax, (%rdi)
	subl	$1, %eax
	je	.L299
.L247:
	movq	64(%rsp), %rdi
	cmpb	$0, 32(%rdi)
	jne	.L251
.L253:
	movq	(%rsp), %rsi
	movq	%r13, %rdi
.LEHB39:
	call	_ZN6QDebuglsERK7QString@PLT
.LEHE39:
	movq	%r13, %rdi
	call	_ZN6QDebugD1Ev@PLT
	movq	(%rsp), %rdi
	call	_ZN7QStringD1Ev@PLT
	leaq	112(%rsp), %rax
	leaq	.LC31(%rip), %rdx
	leaq	.LC32(%rip), %rsi
	movq	%rax, (%rsp)
	movq	%rax, %rdi
	xorl	%eax, %eax
.LEHB40:
	call	_ZN7QString8asprintfEPKcz@PLT
.LEHE40:
	leaq	96(%rsp), %r13
	leaq	.LC29(%rip), %rcx
	movq	%rbx, %rsi
	movl	$2, 224(%rsp)
	movl	$0, 228(%rsp)
	movq	%r13, %rdi
	movq	$0, 232(%rsp)
	movq	$0, 240(%rsp)
	movq	%rcx, 248(%rsp)
.LEHB41:
	call	_ZNK14QMessageLogger4infoEv@PLT
.LEHE41:
	movq	(%rsp), %rsi
	movq	%r13, %rdi
.LEHB42:
	call	_ZN6QDebuglsERK7QString@PLT
.LEHE42:
	movq	%r13, %rdi
	leaq	128(%rsp), %r13
	call	_ZN6QDebugD1Ev@PLT
	movq	(%rsp), %rdi
	call	_ZN7QStringD1Ev@PLT
	leaq	.LC33(%rip), %rsi
	movq	%r13, %rdi
.LEHB43:
	call	_ZN7QStringC1EPKc@PLT
.LEHE43:
	movq	%r14, %rdx
	movq	16(%rsp), %r14
	movq	%r13, %rsi
	movq	%r14, %rdi
.LEHB44:
	call	_ZN11QQmlContext18setContextPropertyERK7QStringP7QObject@PLT
.LEHE44:
	movq	%r13, %rdi
	leaq	144(%rsp), %r13
	call	_ZN7QStringD1Ev@PLT
	leaq	.LC34(%rip), %rsi
	movq	%r13, %rdi
.LEHB45:
	call	_ZN7QStringC1EPKc@PLT
.LEHE45:
	movq	%r15, %rdx
	movq	%r13, %rsi
	movq	%r14, %rdi
.LEHB46:
	call	_ZN11QQmlContext18setContextPropertyERK7QStringP7QObject@PLT
.LEHE46:
	movq	%r13, %rdi
	call	_ZN7QStringD1Ev@PLT
	leaq	.LC35(%rip), %rcx
	leaq	.LC36(%rip), %rdi
	xorl	%edx, %edx
	movl	$1, %esi
.LEHB47:
	call	_Z15qmlRegisterTypeI14NewUserManagerEiPKciiS2_@PLT
	leaq	.LC37(%rip), %rcx
	leaq	.LC36(%rip), %rdi
	xorl	%edx, %edx
	movl	$1, %esi
	call	_Z15qmlRegisterTypeI13SessionsModelEiPKciiS2_@PLT
	leaq	.LC38(%rip), %rdi
	movl	$13, %esi
	call	_ZN7QString17fromLatin1_helperEPKci@PLT
.LEHE47:
	xorl	%edx, %edx
	movq	%rbp, %rsi
	movq	%rbx, %rdi
	movq	%rax, 160(%rsp)
.LEHB48:
	call	_ZN4QUrlC1ERK7QStringNS_11ParsingModeE@PLT
.LEHE48:
	movq	%rbx, %rsi
	movq	%r12, %rdi
.LEHB49:
	call	_ZN21QQmlApplicationEngine4loadERK4QUrl@PLT
.LEHE49:
	movq	%rbx, %rdi
	call	_ZN4QUrlD1Ev@PLT
	movq	%rbp, %rdi
	call	_ZN7QStringD1Ev@PLT
.LEHB50:
	call	_ZN15QGuiApplication4execEv@PLT
.LEHE50:
	movq	%r12, %rdi
	movl	%eax, %ebx
	call	_ZN21QQmlApplicationEngineD1Ev@PLT
	movq	8(%rsp), %rdi
	call	_ZN15QGuiApplicationD1Ev@PLT
	movq	264(%rsp), %rcx
	xorq	%fs:40, %rcx
	movl	%ebx, %eax
	jne	.L300
	addq	$280, %rsp
	.cfi_remember_state
	.cfi_def_cfa_offset 56
	popq	%rbx
	.cfi_def_cfa_offset 48
	popq	%rbp
	.cfi_def_cfa_offset 40
	popq	%r12
	.cfi_def_cfa_offset 32
	popq	%r13
	.cfi_def_cfa_offset 24
	popq	%r14
	.cfi_def_cfa_offset 16
	popq	%r15
	.cfi_def_cfa_offset 8
	ret
.L299:
	.cfi_restore_state
	movq	160(%rsp), %rdi
.L250:
	movl	$8, %edx
	movl	$2, %esi
	call	_ZN10QArrayData10deallocateEPS_mm@PLT
	jmp	.L247
.L251:
	movl	$32, %esi
.LEHB51:
	call	_ZN11QTextStreamlsEc@PLT
.LEHE51:
	jmp	.L253
.L300:
	call	__stack_chk_fail@PLT
.L287:
	movq	%rax, %r13
	movq	%rbx, %rdi
	movq	%r13, %rbx
	call	_ZN4QUrlD1Ev@PLT
.L270:
	movq	%rbp, %rdi
	call	_ZN7QStringD1Ev@PLT
.L262:
	movq	%r12, %rdi
	call	_ZN21QQmlApplicationEngineD1Ev@PLT
.L259:
	movq	8(%rsp), %rdi
	call	_ZN15QGuiApplicationD1Ev@PLT
	movq	%rbx, %rdi
.LEHB52:
	call	_Unwind_Resume@PLT
.L281:
.L295:
	movq	%rax, %rbx
.L255:
	movq	%r13, %rdi
	call	_ZN6QDebugD1Ev@PLT
.L266:
	movq	(%rsp), %rdi
	call	_ZN7QStringD1Ev@PLT
	jmp	.L262
.L280:
.L294:
	movq	%rax, %rbx
	jmp	.L266
.L286:
.L296:
	movq	%rax, %rbx
	jmp	.L270
.L285:
.L292:
	movq	%r13, %rdi
	movq	%rax, %rbx
	call	_ZN7QStringD1Ev@PLT
	jmp	.L262
.L288:
	movq	%rbp, %rdi
	movq	%rax, %rbx
	call	_ZN7QStringD1Ev@PLT
	jmp	.L255
.L282:
	jmp	.L294
.L284:
	jmp	.L292
.L283:
	jmp	.L295
.L279:
	movq	%r14, %rdi
	movq	%rax, %rbx
	call	_ZdlPv@PLT
	jmp	.L262
.L278:
	movq	%r15, %rdi
	movq	%rax, %rbx
	call	_ZdlPv@PLT
	jmp	.L270
.L277:
	jmp	.L296
.L276:
	movq	%rax, %rbx
	jmp	.L262
.L275:
	movq	%rbp, %rdi
	movq	%rax, %rbx
	call	_ZN7QStringD1Ev@PLT
	jmp	.L259
.L274:
	movq	%rax, %rbx
	jmp	.L259
.L273:
.L293:
	movq	%rax, %rbp
	movq	%rbx, %rdi
	call	_ZN7QStringD1Ev@PLT
	movq	%rbp, %rdi
	call	_Unwind_Resume@PLT
.LEHE52:
.L272:
	jmp	.L293
	.cfi_endproc
.LFE15849:
	.section	.gcc_except_table,"a",@progbits
.LLSDA15849:
	.byte	0xff
	.byte	0xff
	.byte	0x1
	.uleb128 .LLSDACSE15849-.LLSDACSB15849
.LLSDACSB15849:
	.uleb128 .LEHB22-.LFB15849
	.uleb128 .LEHE22-.LEHB22
	.uleb128 0
	.uleb128 0
	.uleb128 .LEHB23-.LFB15849
	.uleb128 .LEHE23-.LEHB23
	.uleb128 .L272-.LFB15849
	.uleb128 0
	.uleb128 .LEHB24-.LFB15849
	.uleb128 .LEHE24-.LEHB24
	.uleb128 0
	.uleb128 0
	.uleb128 .LEHB25-.LFB15849
	.uleb128 .LEHE25-.LEHB25
	.uleb128 .L273-.LFB15849
	.uleb128 0
	.uleb128 .LEHB26-.LFB15849
	.uleb128 .LEHE26-.LEHB26
	.uleb128 0
	.uleb128 0
	.uleb128 .LEHB27-.LFB15849
	.uleb128 .LEHE27-.LEHB27
	.uleb128 .L274-.LFB15849
	.uleb128 0
	.uleb128 .LEHB28-.LFB15849
	.uleb128 .LEHE28-.LEHB28
	.uleb128 .L275-.LFB15849
	.uleb128 0
	.uleb128 .LEHB29-.LFB15849
	.uleb128 .LEHE29-.LEHB29
	.uleb128 .L274-.LFB15849
	.uleb128 0
	.uleb128 .LEHB30-.LFB15849
	.uleb128 .LEHE30-.LEHB30
	.uleb128 .L276-.LFB15849
	.uleb128 0
	.uleb128 .LEHB31-.LFB15849
	.uleb128 .LEHE31-.LEHB31
	.uleb128 .L277-.LFB15849
	.uleb128 0
	.uleb128 .LEHB32-.LFB15849
	.uleb128 .LEHE32-.LEHB32
	.uleb128 .L278-.LFB15849
	.uleb128 0
	.uleb128 .LEHB33-.LFB15849
	.uleb128 .LEHE33-.LEHB33
	.uleb128 .L276-.LFB15849
	.uleb128 0
	.uleb128 .LEHB34-.LFB15849
	.uleb128 .LEHE34-.LEHB34
	.uleb128 .L279-.LFB15849
	.uleb128 0
	.uleb128 .LEHB35-.LFB15849
	.uleb128 .LEHE35-.LEHB35
	.uleb128 .L276-.LFB15849
	.uleb128 0
	.uleb128 .LEHB36-.LFB15849
	.uleb128 .LEHE36-.LEHB36
	.uleb128 .L280-.LFB15849
	.uleb128 0
	.uleb128 .LEHB37-.LFB15849
	.uleb128 .LEHE37-.LEHB37
	.uleb128 .L281-.LFB15849
	.uleb128 0
	.uleb128 .LEHB38-.LFB15849
	.uleb128 .LEHE38-.LEHB38
	.uleb128 .L288-.LFB15849
	.uleb128 0
	.uleb128 .LEHB39-.LFB15849
	.uleb128 .LEHE39-.LEHB39
	.uleb128 .L281-.LFB15849
	.uleb128 0
	.uleb128 .LEHB40-.LFB15849
	.uleb128 .LEHE40-.LEHB40
	.uleb128 .L276-.LFB15849
	.uleb128 0
	.uleb128 .LEHB41-.LFB15849
	.uleb128 .LEHE41-.LEHB41
	.uleb128 .L282-.LFB15849
	.uleb128 0
	.uleb128 .LEHB42-.LFB15849
	.uleb128 .LEHE42-.LEHB42
	.uleb128 .L283-.LFB15849
	.uleb128 0
	.uleb128 .LEHB43-.LFB15849
	.uleb128 .LEHE43-.LEHB43
	.uleb128 .L276-.LFB15849
	.uleb128 0
	.uleb128 .LEHB44-.LFB15849
	.uleb128 .LEHE44-.LEHB44
	.uleb128 .L284-.LFB15849
	.uleb128 0
	.uleb128 .LEHB45-.LFB15849
	.uleb128 .LEHE45-.LEHB45
	.uleb128 .L276-.LFB15849
	.uleb128 0
	.uleb128 .LEHB46-.LFB15849
	.uleb128 .LEHE46-.LEHB46
	.uleb128 .L285-.LFB15849
	.uleb128 0
	.uleb128 .LEHB47-.LFB15849
	.uleb128 .LEHE47-.LEHB47
	.uleb128 .L276-.LFB15849
	.uleb128 0
	.uleb128 .LEHB48-.LFB15849
	.uleb128 .LEHE48-.LEHB48
	.uleb128 .L286-.LFB15849
	.uleb128 0
	.uleb128 .LEHB49-.LFB15849
	.uleb128 .LEHE49-.LEHB49
	.uleb128 .L287-.LFB15849
	.uleb128 0
	.uleb128 .LEHB50-.LFB15849
	.uleb128 .LEHE50-.LEHB50
	.uleb128 .L276-.LFB15849
	.uleb128 0
	.uleb128 .LEHB51-.LFB15849
	.uleb128 .LEHE51-.LEHB51
	.uleb128 .L281-.LFB15849
	.uleb128 0
	.uleb128 .LEHB52-.LFB15849
	.uleb128 .LEHE52-.LEHB52
	.uleb128 0
	.uleb128 0
.LLSDACSE15849:
	.section	.text.startup
	.size	main, .-main
	.section	.text.unlikely
.LCOLDE39:
	.section	.text.startup
.LHOTE39:
	.weak	_ZTSN11QQmlPrivate11QQmlElementI14NewUserManagerEE
	.section	.rodata._ZTSN11QQmlPrivate11QQmlElementI14NewUserManagerEE,"aG",@progbits,_ZTSN11QQmlPrivate11QQmlElementI14NewUserManagerEE,comdat
	.align 32
	.type	_ZTSN11QQmlPrivate11QQmlElementI14NewUserManagerEE, @object
	.size	_ZTSN11QQmlPrivate11QQmlElementI14NewUserManagerEE, 47
_ZTSN11QQmlPrivate11QQmlElementI14NewUserManagerEE:
	.string	"N11QQmlPrivate11QQmlElementI14NewUserManagerEE"
	.weak	_ZTIN11QQmlPrivate11QQmlElementI14NewUserManagerEE
	.section	.data.rel.ro._ZTIN11QQmlPrivate11QQmlElementI14NewUserManagerEE,"awG",@progbits,_ZTIN11QQmlPrivate11QQmlElementI14NewUserManagerEE,comdat
	.align 8
	.type	_ZTIN11QQmlPrivate11QQmlElementI14NewUserManagerEE, @object
	.size	_ZTIN11QQmlPrivate11QQmlElementI14NewUserManagerEE, 24
_ZTIN11QQmlPrivate11QQmlElementI14NewUserManagerEE:
	.quad	_ZTVN10__cxxabiv120__si_class_type_infoE+16
	.quad	_ZTSN11QQmlPrivate11QQmlElementI14NewUserManagerEE
	.quad	_ZTI14NewUserManager
	.weak	_ZTSN11QQmlPrivate11QQmlElementI13SessionsModelEE
	.section	.rodata._ZTSN11QQmlPrivate11QQmlElementI13SessionsModelEE,"aG",@progbits,_ZTSN11QQmlPrivate11QQmlElementI13SessionsModelEE,comdat
	.align 32
	.type	_ZTSN11QQmlPrivate11QQmlElementI13SessionsModelEE, @object
	.size	_ZTSN11QQmlPrivate11QQmlElementI13SessionsModelEE, 46
_ZTSN11QQmlPrivate11QQmlElementI13SessionsModelEE:
	.string	"N11QQmlPrivate11QQmlElementI13SessionsModelEE"
	.weak	_ZTIN11QQmlPrivate11QQmlElementI13SessionsModelEE
	.section	.data.rel.ro._ZTIN11QQmlPrivate11QQmlElementI13SessionsModelEE,"awG",@progbits,_ZTIN11QQmlPrivate11QQmlElementI13SessionsModelEE,comdat
	.align 8
	.type	_ZTIN11QQmlPrivate11QQmlElementI13SessionsModelEE, @object
	.size	_ZTIN11QQmlPrivate11QQmlElementI13SessionsModelEE, 24
_ZTIN11QQmlPrivate11QQmlElementI13SessionsModelEE:
	.quad	_ZTVN10__cxxabiv120__si_class_type_infoE+16
	.quad	_ZTSN11QQmlPrivate11QQmlElementI13SessionsModelEE
	.quad	_ZTI13SessionsModel
	.weak	_ZTVN11QQmlPrivate11QQmlElementI14NewUserManagerEE
	.section	.data.rel.ro._ZTVN11QQmlPrivate11QQmlElementI14NewUserManagerEE,"awG",@progbits,_ZTVN11QQmlPrivate11QQmlElementI14NewUserManagerEE,comdat
	.align 8
	.type	_ZTVN11QQmlPrivate11QQmlElementI14NewUserManagerEE, @object
	.size	_ZTVN11QQmlPrivate11QQmlElementI14NewUserManagerEE, 112
_ZTVN11QQmlPrivate11QQmlElementI14NewUserManagerEE:
	.quad	0
	.quad	_ZTIN11QQmlPrivate11QQmlElementI14NewUserManagerEE
	.quad	_ZNK14NewUserManager10metaObjectEv
	.quad	_ZN14NewUserManager11qt_metacastEPKc
	.quad	_ZN14NewUserManager11qt_metacallEN11QMetaObject4CallEiPPv
	.quad	_ZN11QQmlPrivate11QQmlElementI14NewUserManagerED1Ev
	.quad	_ZN11QQmlPrivate11QQmlElementI14NewUserManagerED0Ev
	.quad	_ZN7QObject5eventEP6QEvent
	.quad	_ZN7QObject11eventFilterEPS_P6QEvent
	.quad	_ZN7QObject10timerEventEP11QTimerEvent
	.quad	_ZN7QObject10childEventEP11QChildEvent
	.quad	_ZN7QObject11customEventEP6QEvent
	.quad	_ZN7QObject13connectNotifyERK11QMetaMethod
	.quad	_ZN7QObject16disconnectNotifyERK11QMetaMethod
	.weak	_ZTVN11QQmlPrivate11QQmlElementI13SessionsModelEE
	.section	.data.rel.ro._ZTVN11QQmlPrivate11QQmlElementI13SessionsModelEE,"awG",@progbits,_ZTVN11QQmlPrivate11QQmlElementI13SessionsModelEE,comdat
	.align 8
	.type	_ZTVN11QQmlPrivate11QQmlElementI13SessionsModelEE, @object
	.size	_ZTVN11QQmlPrivate11QQmlElementI13SessionsModelEE, 384
_ZTVN11QQmlPrivate11QQmlElementI13SessionsModelEE:
	.quad	0
	.quad	_ZTIN11QQmlPrivate11QQmlElementI13SessionsModelEE
	.quad	_ZNK13SessionsModel10metaObjectEv
	.quad	_ZN13SessionsModel11qt_metacastEPKc
	.quad	_ZN13SessionsModel11qt_metacallEN11QMetaObject4CallEiPPv
	.quad	_ZN11QQmlPrivate11QQmlElementI13SessionsModelED1Ev
	.quad	_ZN11QQmlPrivate11QQmlElementI13SessionsModelED0Ev
	.quad	_ZN7QObject5eventEP6QEvent
	.quad	_ZN7QObject11eventFilterEPS_P6QEvent
	.quad	_ZN7QObject10timerEventEP11QTimerEvent
	.quad	_ZN7QObject10childEventEP11QChildEvent
	.quad	_ZN7QObject11customEventEP6QEvent
	.quad	_ZN7QObject13connectNotifyERK11QMetaMethod
	.quad	_ZN7QObject16disconnectNotifyERK11QMetaMethod
	.quad	_ZNK18QAbstractListModel5indexEiiRK11QModelIndex
	.quad	_ZNK18QAbstractListModel6parentERK11QModelIndex
	.quad	_ZNK18QAbstractListModel7siblingEiiRK11QModelIndex
	.quad	_ZNK13SessionsModel8rowCountERK11QModelIndex
	.quad	_ZNK18QAbstractListModel11columnCountERK11QModelIndex
	.quad	_ZNK18QAbstractListModel11hasChildrenERK11QModelIndex
	.quad	_ZNK13SessionsModel4dataERK11QModelIndexi
	.quad	_ZN18QAbstractItemModel7setDataERK11QModelIndexRK8QVarianti
	.quad	_ZNK18QAbstractItemModel10headerDataEiN2Qt11OrientationEi
	.quad	_ZN18QAbstractItemModel13setHeaderDataEiN2Qt11OrientationERK8QVarianti
	.quad	_ZNK18QAbstractItemModel8itemDataERK11QModelIndex
	.quad	_ZN18QAbstractItemModel11setItemDataERK11QModelIndexRK4QMapIi8QVariantE
	.quad	_ZNK18QAbstractItemModel9mimeTypesEv
	.quad	_ZNK18QAbstractItemModel8mimeDataERK5QListI11QModelIndexE
	.quad	_ZNK18QAbstractItemModel15canDropMimeDataEPK9QMimeDataN2Qt10DropActionEiiRK11QModelIndex
	.quad	_ZN18QAbstractListModel12dropMimeDataEPK9QMimeDataN2Qt10DropActionEiiRK11QModelIndex
	.quad	_ZNK18QAbstractItemModel20supportedDropActionsEv
	.quad	_ZNK18QAbstractItemModel20supportedDragActionsEv
	.quad	_ZN18QAbstractItemModel10insertRowsEiiRK11QModelIndex
	.quad	_ZN18QAbstractItemModel13insertColumnsEiiRK11QModelIndex
	.quad	_ZN18QAbstractItemModel10removeRowsEiiRK11QModelIndex
	.quad	_ZN18QAbstractItemModel13removeColumnsEiiRK11QModelIndex
	.quad	_ZN18QAbstractItemModel8moveRowsERK11QModelIndexiiS2_i
	.quad	_ZN18QAbstractItemModel11moveColumnsERK11QModelIndexiiS2_i
	.quad	_ZN18QAbstractItemModel9fetchMoreERK11QModelIndex
	.quad	_ZNK18QAbstractItemModel12canFetchMoreERK11QModelIndex
	.quad	_ZNK18QAbstractListModel5flagsERK11QModelIndex
	.quad	_ZN18QAbstractItemModel4sortEiN2Qt9SortOrderE
	.quad	_ZNK18QAbstractItemModel5buddyERK11QModelIndex
	.quad	_ZNK18QAbstractItemModel5matchERK11QModelIndexiRK8QVarianti6QFlagsIN2Qt9MatchFlagEE
	.quad	_ZNK18QAbstractItemModel4spanERK11QModelIndex
	.quad	_ZNK13SessionsModel9roleNamesEv
	.quad	_ZN18QAbstractItemModel6submitEv
	.quad	_ZN18QAbstractItemModel6revertEv
	.weak	_ZZN18QMetaTypeIdQObjectIP13SessionsModelLi8EE14qt_metatype_idEvE11metatype_id
	.section	.bss._ZZN18QMetaTypeIdQObjectIP13SessionsModelLi8EE14qt_metatype_idEvE11metatype_id,"awG",@nobits,_ZZN18QMetaTypeIdQObjectIP13SessionsModelLi8EE14qt_metatype_idEvE11metatype_id,comdat
	.align 4
	.type	_ZZN18QMetaTypeIdQObjectIP13SessionsModelLi8EE14qt_metatype_idEvE11metatype_id, @gnu_unique_object
	.size	_ZZN18QMetaTypeIdQObjectIP13SessionsModelLi8EE14qt_metatype_idEvE11metatype_id, 4
_ZZN18QMetaTypeIdQObjectIP13SessionsModelLi8EE14qt_metatype_idEvE11metatype_id:
	.zero	4
	.weak	_ZZN18QMetaTypeIdQObjectIP14NewUserManagerLi8EE14qt_metatype_idEvE11metatype_id
	.section	.bss._ZZN18QMetaTypeIdQObjectIP14NewUserManagerLi8EE14qt_metatype_idEvE11metatype_id,"awG",@nobits,_ZZN18QMetaTypeIdQObjectIP14NewUserManagerLi8EE14qt_metatype_idEvE11metatype_id,comdat
	.align 4
	.type	_ZZN18QMetaTypeIdQObjectIP14NewUserManagerLi8EE14qt_metatype_idEvE11metatype_id, @gnu_unique_object
	.size	_ZZN18QMetaTypeIdQObjectIP14NewUserManagerLi8EE14qt_metatype_idEvE11metatype_id, 4
_ZZN18QMetaTypeIdQObjectIP14NewUserManagerLi8EE14qt_metatype_idEvE11metatype_id:
	.zero	4
	.local	_ZN4KeysL9pnPublishE
	.comm	_ZN4KeysL9pnPublishE,8,8
	.local	_ZN4KeysL11pnSubscribeE
	.comm	_ZN4KeysL11pnSubscribeE,8,8
	.hidden	DW.ref.__gxx_personality_v0
	.weak	DW.ref.__gxx_personality_v0
	.section	.data.DW.ref.__gxx_personality_v0,"awG",@progbits,DW.ref.__gxx_personality_v0,comdat
	.align 8
	.type	DW.ref.__gxx_personality_v0, @object
	.size	DW.ref.__gxx_personality_v0, 8
DW.ref.__gxx_personality_v0:
	.quad	__gxx_personality_v0
	.hidden	__dso_handle
	.ident	"GCC: (Ubuntu 5.4.0-6ubuntu1~16.04.4) 5.4.0 20160609"
	.section	.note.GNU-stack,"",@progbits
